

Microchip MPLAB XC8 Assembler V2.32 build 20210201212658 
                                                                                               Tue May 11 15:02:23 2021

Microchip MPLAB XC8 C Compiler v2.32 (Free license) build 20210201212658 Og1 
     1                           	processor	18F4550
     2                           	fnconf	rparam,??,?,0
     3                           	pagewidth 120
     4                           	opt	flic
     5                           	psect	idataCOMRAM,global,class=CODE,delta=1,noexec
     6                           	psect	smallconst,global,reloc=2,class=SMALLCONST,delta=1,noexec
     7                           	psect	cinit,global,reloc=2,class=CODE,delta=1
     8                           	psect	bssCOMRAM,global,class=COMRAM,space=1,delta=1,lowdata,noexec
     9                           	psect	dataCOMRAM,global,class=COMRAM,space=1,delta=1,lowdata,noexec
    10                           	psect	cstackCOMRAM,global,class=COMRAM,space=1,delta=1,lowdata,noexec
    11                           	psect	text0,global,reloc=2,class=CODE,delta=1
    12                           	psect	text1,global,reloc=2,class=CODE,delta=1
    13                           	psect	text2,global,reloc=2,class=CODE,delta=1
    14                           	psect	text3,global,reloc=2,class=CODE,delta=1
    15                           	psect	text4,global,reloc=2,class=CODE,delta=1
    16                           	psect	text5,global,reloc=2,class=CODE,delta=1
    17                           	psect	text6,global,reloc=2,class=CODE,delta=1
    18                           	psect	text7,global,reloc=2,class=CODE,delta=1
    19                           	psect	text8,global,reloc=2,class=CODE,delta=1
    20                           	psect	text9,global,reloc=2,class=CODE,delta=1
    21                           	psect	text10,global,reloc=2,class=CODE,delta=1
    22                           	psect	text11,global,reloc=2,class=CODE,delta=1
    23                           	psect	text12,global,reloc=2,class=CODE,delta=1
    24                           	psect	intcode,global,reloc=2,class=CODE,delta=1
    25                           	psect	intcode_body,global,reloc=2,class=CODE,delta=1
    26                           	psect	text14,global,reloc=2,class=CODE,delta=1
    27                           	psect	text15,global,reloc=2,class=CODE,delta=1
    28                           	psect	intsave_regs,global,class=BIGRAM,space=1,delta=1,noexec
    29                           	psect	rparam,global,class=COMRAM,space=1,delta=1,noexec
    30                           	psect	temp,global,ovrld,common,class=COMRAM,space=1,delta=1
    31                           	psect	idloc,global,abs,ovrld,class=IDLOC,space=5,delta=1,noexec
    32                           	psect	config,global,abs,ovrld,class=CONFIG,space=4,delta=1,noexec
    33  0000                     
    34                           ; Version 2.20
    35                           ; Generated 12/02/2020 GMT
    36                           ; 
    37                           ; Copyright © 2020, Microchip Technology Inc. and its subsidiaries ("Microchip")
    38                           ; All rights reserved.
    39                           ; 
    40                           ; This software is developed by Microchip Technology Inc. and its subsidiaries ("Microch
      +                          ip").
    41                           ; 
    42                           ; Redistribution and use in source and binary forms, with or without modification, are
    43                           ; permitted provided that the following conditions are met:
    44                           ; 
    45                           ;     1. Redistributions of source code must retain the above copyright notice, this lis
      +                          t of
    46                           ;        conditions and the following disclaimer.
    47                           ; 
    48                           ;     2. Redistributions in binary form must reproduce the above copyright notice, this 
      +                          list
    49                           ;        of conditions and the following disclaimer in the documentation and/or other
    50                           ;        materials provided with the distribution.
    51                           ; 
    52                           ;     3. Microchip's name may not be used to endorse or promote products derived from th
      +                          is
    53                           ;        software without specific prior written permission.
    54                           ; 
    55                           ; THIS SOFTWARE IS PROVIDED BY MICROCHIP "AS IS" AND ANY EXPRESS OR IMPLIED WARRANTIES,
    56                           ; INCLUDING, BUT NOT LIMITED TO, THE IMPLIED WARRANTIES OF MERCHANTABILITY AND FITNESS F
      +                          OR
    57                           ; PURPOSE ARE DISCLAIMED.  IN NO EVENT SHALL MICROCHIP BE LIABLE FOR ANY DIRECT, INDIREC
      +                          T,
    58                           ; INCIDENTAL, SPECIAL, EXEMPLARY, OR CONSEQUENTIAL DAMAGES (INCLUDING BUT NOT LIMITED TO
    59                           ; PROCUREMENT OF SUBSTITUTE GOODS OR SERVICES; LOSS OF USE, DATA OR PROFITS; OR BUSINESS
    60                           ; INTERRUPTION) HOWSOEVER CAUSED AND ON ANY THEORY OF LIABILITY, WHETHER IN CONTRACT, ST
      +                          RICT
    61                           ; LIABILITY, OR TORT (INCLUDING NEGLIGENCE OR OTHERWISE) ARISING IN ANY WAY OUT OF THE U
      +                          SE OF
    62                           ; THIS SOFTWARE, EVEN IF ADVISED OF THE POSSIBILITY OF SUCH DAMAGE.
    63                           ; 
    64                           ; 
    65                           ; Code-generator required, PIC18F4550 Definitions
    66                           ; 
    67                           ; SFR Addresses
    68  0000                     
    69                           	psect	idataCOMRAM
    70  000FBC                     __pidataCOMRAM:
    71                           	callstack 0
    72                           
    73                           ;initializer for _cgr
    74  000FBC  00                 	db	0
    75  000FBD  00                 	db	0
    76  000FBE  01                 	db	1
    77  000FBF  01                 	db	1
    78  000FC0  02                 	db	2
    79  000FC1  02                 	db	2
    80  000FC2  03                 	db	3
    81  000FC3  03                 	db	3
    82  000FC4  04                 	db	4
    83  000FC5  04                 	db	4
    84  000FC6  05                 	db	5
    85  000FC7  05                 	db	5
    86  000FC8  06                 	db	6
    87  000FC9  07                 	db	7
    88  000FCA  07                 	db	7
    89                           
    90                           	psect	smallconst
    91  000800                     __psmallconst:
    92                           	callstack 0
    93  000800  00                 	db	0
    94  000801                     _b6:
    95                           	callstack 0
    96  000801  03                 	db	3
    97  000802  1F                 	db	31
    98  000803  1F                 	db	31
    99  000804  1F                 	db	31
   100  000805  1F                 	db	31
   101  000806  1F                 	db	31
   102  000807  1F                 	db	31
   103  000808  00                 	db	0
   104  000809  00                 	db	0
   105  00080A                     __end_of_b6:
   106                           	callstack 0
   107  00080A                     _b5:
   108                           	callstack 0
   109  00080A  00                 	db	0
   110  00080B  1F                 	db	31
   111  00080C  1F                 	db	31
   112  00080D  1F                 	db	31
   113  00080E  1F                 	db	31
   114  00080F  1F                 	db	31
   115  000810  1F                 	db	31
   116  000811  00                 	db	0
   117  000812  00                 	db	0
   118  000813                     __end_of_b5:
   119                           	callstack 0
   120  000813                     _b4:
   121                           	callstack 0
   122  000813  00                 	db	0
   123  000814  00                 	db	0
   124  000815  1F                 	db	31
   125  000816  1F                 	db	31
   126  000817  1F                 	db	31
   127  000818  1F                 	db	31
   128  000819  1F                 	db	31
   129  00081A  00                 	db	0
   130  00081B  00                 	db	0
   131  00081C                     __end_of_b4:
   132                           	callstack 0
   133  00081C                     _b3:
   134                           	callstack 0
   135  00081C  00                 	db	0
   136  00081D  00                 	db	0
   137  00081E  00                 	db	0
   138  00081F  1F                 	db	31
   139  000820  1F                 	db	31
   140  000821  1F                 	db	31
   141  000822  1F                 	db	31
   142  000823  00                 	db	0
   143  000824  00                 	db	0
   144  000825                     __end_of_b3:
   145                           	callstack 0
   146  000825                     _b2:
   147                           	callstack 0
   148  000825  00                 	db	0
   149  000826  00                 	db	0
   150  000827  00                 	db	0
   151  000828  00                 	db	0
   152  000829  1F                 	db	31
   153  00082A  1F                 	db	31
   154  00082B  1F                 	db	31
   155  00082C  00                 	db	0
   156  00082D  00                 	db	0
   157  00082E                     __end_of_b2:
   158                           	callstack 0
   159  00082E                     _b1:
   160                           	callstack 0
   161  00082E  00                 	db	0
   162  00082F  00                 	db	0
   163  000830  00                 	db	0
   164  000831  00                 	db	0
   165  000832  00                 	db	0
   166  000833  1F                 	db	31
   167  000834  1F                 	db	31
   168  000835  00                 	db	0
   169  000836  00                 	db	0
   170  000837                     __end_of_b1:
   171                           	callstack 0
   172  000837                     _min:
   173                           	callstack 0
   174  000837  00                 	db	0
   175  000838  00                 	db	0
   176  000839  00                 	db	0
   177  00083A  00                 	db	0
   178  00083B  00                 	db	0
   179  00083C  00                 	db	0
   180  00083D  1F                 	db	31
   181  00083E  00                 	db	0
   182  00083F  00                 	db	0
   183  000840                     __end_of_min:
   184                           	callstack 0
   185  000840                     _max:
   186                           	callstack 0
   187  000840  1F                 	db	31
   188  000841  1F                 	db	31
   189  000842  1F                 	db	31
   190  000843  1F                 	db	31
   191  000844  1F                 	db	31
   192  000845  1F                 	db	31
   193  000846  1F                 	db	31
   194  000847  00                 	db	0
   195  000848  00                 	db	0
   196  000849                     __end_of_max:
   197                           	callstack 0
   198  0000                     _LATDbits	set	3980
   199  0000                     _TRISDbits	set	3989
   200  0000                     _TRISD	set	3989
   201  0000                     _PORTD	set	3971
   202  0000                     _PORTBbits	set	3969
   203  0000                     _LATB	set	3978
   204  0000                     _RCONbits	set	4048
   205  0000                     _INTCON2bits	set	4081
   206  0000                     _TRISBbits	set	3987
   207  0000                     _INTCONbits	set	4082
   208  000849                     STR_1:
   209  000849  56                 	db	86	;'V'
   210  00084A  4F                 	db	79	;'O'
   211  00084B  4C                 	db	76	;'L'
   212  00084C  55                 	db	85	;'U'
   213  00084D  4D                 	db	77	;'M'
   214  00084E  45                 	db	69	;'E'
   215  00084F  4E                 	db	78	;'N'
   216  000850  3A                 	db	58	;':'
   217  000851  00                 	db	0
   218  000852                     STR_5:
   219  000852  4D                 	db	77	;'M'
   220  000853  49                 	db	73	;'I'
   221  000854  4E                 	db	78	;'N'
   222  000855  00                 	db	0
   223  000856                     STR_3:
   224  000856  4D                 	db	77	;'M'
   225  000857  41                 	db	65	;'A'
   226  000858  58                 	db	88	;'X'
   227  000859  00                 	db	0
   228  00085A  00                 	db	0	; dummy byte at the end
   229  0000                     
   230                           ; #config settings
   231                           
   232                           	psect	cinit
   233  000EAE                     __pcinit:
   234                           	callstack 0
   235  000EAE                     start_initialization:
   236                           	callstack 0
   237  000EAE                     __initialization:
   238                           	callstack 0
   239                           
   240                           ; Initialize objects allocated to COMRAM (15 bytes)
   241                           ; load TBLPTR registers with __pidataCOMRAM
   242  000EAE  0EBC               	movlw	low __pidataCOMRAM
   243  000EB0  6EF6               	movwf	tblptrl,c
   244  000EB2  0E0F               	movlw	high __pidataCOMRAM
   245  000EB4  6EF7               	movwf	tblptrh,c
   246  000EB6  0E00               	movlw	low (__pidataCOMRAM shr (0+16))
   247  000EB8  6EF8               	movwf	tblptru,c
   248  000EBA  EE00  F001         	lfsr	0,__pdataCOMRAM
   249  000EBE  EE10 F00F          	lfsr	1,15
   250  000EC2                     copy_data0:
   251  000EC2  0009               	tblrd		*+
   252  000EC4  CFF5 FFEE          	movff	tablat,postinc0
   253  000EC8  50E5               	movf	postdec1,w,c
   254  000ECA  50E1               	movf	fsr1l,w,c
   255  000ECC  E1FA               	bnz	copy_data0
   256                           
   257                           ; Clear objects allocated to COMRAM (5 bytes)
   258  000ECE  6A20               	clrf	(__pbssCOMRAM+4)& (0+255),c
   259  000ED0  6A1F               	clrf	(__pbssCOMRAM+3)& (0+255),c
   260  000ED2  6A1E               	clrf	(__pbssCOMRAM+2)& (0+255),c
   261  000ED4  6A1D               	clrf	(__pbssCOMRAM+1)& (0+255),c
   262  000ED6  6A1C               	clrf	__pbssCOMRAM& (0+255),c
   263  000ED8                     end_of_initialization:
   264                           	callstack 0
   265  000ED8                     __end_of__initialization:
   266                           	callstack 0
   267  000ED8  9021               	bcf	int$flags,0,c	;clear compiler interrupt flag (level 1)
   268  000EDA  9221               	bcf	int$flags,1,c	;clear compiler interrupt flag (level 2)
   269  000EDC  0E00               	movlw	low (__Lsmallconst shr (0+16))
   270  000EDE  6EF8               	movwf	tblptru,c
   271  000EE0  0E08               	movlw	high __Lsmallconst
   272  000EE2  6EF7               	movwf	tblptrh,c
   273  000EE4  0100               	movlb	0
   274  000EE6  EF2E  F004         	goto	_main	;jump to C main() function
   275                           
   276                           	psect	bssCOMRAM
   277  00001C                     __pbssCOMRAM:
   278                           	callstack 0
   279  00001C                     _i:
   280                           	callstack 0
   281  00001C                     	ds	2
   282  00001E                     _p:
   283                           	callstack 0
   284  00001E                     	ds	2
   285  000020                     _cuenta:
   286                           	callstack 0
   287  000020                     	ds	1
   288                           
   289                           	psect	dataCOMRAM
   290  000001                     __pdataCOMRAM:
   291                           	callstack 0
   292  000001                     _cgr:
   293                           	callstack 0
   294  000001                     	ds	15
   295                           
   296                           	psect	cstackCOMRAM
   297  000010                     __pcstackCOMRAM:
   298                           	callstack 0
   299  000010                     i2WriteCmdXLCD@cmd:
   300                           	callstack 0
   301                           
   302                           ; 1 bytes @ 0x0
   303  000010                     	ds	1
   304  000011                     ??_JOSHUAint0:
   305                           
   306                           ; 1 bytes @ 0x1
   307  000011                     	ds	1
   308  000012                     ??_SetCGRamAddr:
   309  000012                     ??_SetDDRamAddr:
   310  000012                     ??_DelayPORXLCD:
   311  000012                     WriteCmdXLCD@cmd:
   312                           	callstack 0
   313  000012                     WriteDataXLCD@data:
   314                           	callstack 0
   315                           
   316                           ; 1 bytes @ 0x2
   317  000012                     	ds	1
   318  000013                     LCD_gotoXY@x:
   319                           	callstack 0
   320  000013                     putrsXLCD@buffer:
   321                           	callstack 0
   322                           
   323                           ; 2 bytes @ 0x3
   324  000013                     	ds	2
   325  000015                     SetCGRamAddr@CGaddr:
   326                           	callstack 0
   327  000015                     SetDDRamAddr@DDaddr:
   328                           	callstack 0
   329  000015                     LCD_gotoXY@y:
   330                           	callstack 0
   331                           
   332                           ; 2 bytes @ 0x5
   333  000015                     	ds	1
   334  000016                     OpenXLCD@lcdtype:
   335                           	callstack 0
   336  000016                     LCD_WriteChr_CGRAM@buffer:
   337                           	callstack 0
   338                           
   339                           ; 2 bytes @ 0x6
   340  000016                     	ds	1
   341  000017                     
   342                           ; 1 bytes @ 0x7
   343  000017                     	ds	1
   344  000018                     LCD_WriteChr_CGRAM@Addres:
   345                           	callstack 0
   346                           
   347                           ; 1 bytes @ 0x8
   348  000018                     	ds	1
   349  000019                     LCD_WriteChr_CGRAM@i:
   350                           	callstack 0
   351                           
   352                           ; 1 bytes @ 0x9
   353  000019                     	ds	1
   354  00001A                     ??_main:
   355                           
   356                           ; 1 bytes @ 0xA
   357  00001A                     	ds	2
   358                           
   359 ;;
   360 ;;Main: autosize = 0, tempsize = 2, incstack = 0, save=0
   361 ;;
   362 ;; *************** function _main *****************
   363 ;; Defined at:
   364 ;;		line 96 in file "Programa_principal.c"
   365 ;; Parameters:    Size  Location     Type
   366 ;;		None
   367 ;; Auto vars:     Size  Location     Type
   368 ;;		None
   369 ;; Return value:  Size  Location     Type
   370 ;;                  1    wreg      void 
   371 ;; Registers used:
   372 ;;		wreg, fsr2l, fsr2h, status,2, status,0, tblptrl, tblptrh, tblptru, prodl, prodh, cstack
   373 ;; Tracked objects:
   374 ;;		On entry : 0/0
   375 ;;		On exit  : 0/0
   376 ;;		Unchanged: 0/0
   377 ;; Data sizes:     COMRAM   BANK0   BANK1   BANK2   BANK3   BANK4   BANK5   BANK6   BANK7
   378 ;;      Params:         0       0       0       0       0       0       0       0       0
   379 ;;      Locals:         0       0       0       0       0       0       0       0       0
   380 ;;      Temps:          2       0       0       0       0       0       0       0       0
   381 ;;      Totals:         2       0       0       0       0       0       0       0       0
   382 ;;Total ram usage:        2 bytes
   383 ;; Hardware stack levels required when called: 7
   384 ;; This function calls:
   385 ;;		_LCD_Init
   386 ;;		_LCD_WriteChr_CGRAM
   387 ;;		_LCD_gotoXY
   388 ;;		_WriteCmdXLCD
   389 ;;		_WriteDataXLCD
   390 ;;		_putrsXLCD
   391 ;; This function is called by:
   392 ;;		Startup code after reset
   393 ;; This function uses a non-reentrant model
   394 ;;
   395                           
   396                           	psect	text0
   397  00085C                     __ptext0:
   398                           	callstack 0
   399  00085C                     _main:
   400                           	callstack 24
   401  00085C                     
   402                           ;Programa_principal.c: 97:     INTCONbits.GIE=0;
   403  00085C  9EF2               	bcf	242,7,c	;volatile
   404                           
   405                           ;Programa_principal.c: 99:     TRISBbits.RB0=1;
   406  00085E  8093               	bsf	147,0,c	;volatile
   407                           
   408                           ;Programa_principal.c: 100:     TRISBbits.RB1=1;
   409  000860  8293               	bsf	147,1,c	;volatile
   410                           
   411                           ;Programa_principal.c: 107:     INTCONbits.INT0IE=1;
   412  000862  88F2               	bsf	242,4,c	;volatile
   413                           
   414                           ;Programa_principal.c: 108:     INTCON2bits.INTEDG0=1;
   415  000864  8CF1               	bsf	241,6,c	;volatile
   416                           
   417                           ;Programa_principal.c: 109:     INTCONbits.INT0IF=0;
   418  000866  92F2               	bcf	242,1,c	;volatile
   419                           
   420                           ;Programa_principal.c: 111:     RCONbits.IPEN=0;
   421  000868  9ED0               	bcf	208,7,c	;volatile
   422                           
   423                           ;Programa_principal.c: 112:     INTCONbits.GIE=1;
   424  00086A  8EF2               	bsf	242,7,c	;volatile
   425  00086C                     
   426                           ;Programa_principal.c: 114:     LATB=0x00;
   427  00086C  0E00               	movlw	0
   428  00086E  6E8A               	movwf	138,c	;volatile
   429  000870                     
   430                           ;Programa_principal.c: 115:     LCD_Init();
   431  000870  ECA8  F007         	call	_LCD_Init	;wreg free
   432  000874                     
   433                           ;Programa_principal.c: 117:     WriteCmdXLCD(0x01);
   434  000874  0E01               	movlw	1
   435  000876  EC19  F007         	call	_WriteCmdXLCD
   436  00087A                     
   437                           ;Programa_principal.c: 118:     LCD_gotoXY(0,0);
   438  00087A  0E00               	movlw	0
   439  00087C  6E14               	movwf	(LCD_gotoXY@x+1)^0,c
   440  00087E  0E00               	movlw	0
   441  000880  6E13               	movwf	LCD_gotoXY@x^0,c
   442  000882  0E00               	movlw	0
   443  000884  6E16               	movwf	(LCD_gotoXY@y+1)^0,c
   444  000886  0E00               	movlw	0
   445  000888  6E15               	movwf	LCD_gotoXY@y^0,c
   446  00088A  EC90  F007         	call	_LCD_gotoXY	;wreg free
   447  00088E                     
   448                           ;Programa_principal.c: 119:     putrsXLCD("VOLUMEN:");
   449  00088E  0E49               	movlw	low STR_1
   450  000890  6E13               	movwf	putrsXLCD@buffer^0,c
   451  000892  0E08               	movlw	high STR_1
   452  000894  6E14               	movwf	(putrsXLCD@buffer+1)^0,c
   453  000896  ECD1  F006         	call	_putrsXLCD	;wreg free
   454  00089A                     
   455                           ;Programa_principal.c: 120:     _delay((unsigned long)((100)*(20000000L/4000.0)));
   456  00089A  0E03               	movlw	3
   457  00089C  6E1B               	movwf	(??_main+1)^0,c
   458  00089E  0E8A               	movlw	138
   459  0008A0  6E1A               	movwf	??_main^0,c
   460  0008A2  0E56               	movlw	86
   461  0008A4                     u487:
   462  0008A4  2EE8               	decfsz	wreg,f,c
   463  0008A6  D7FE               	bra	u487
   464  0008A8  2E1A               	decfsz	??_main^0,f,c
   465  0008AA  D7FC               	bra	u487
   466  0008AC  2E1B               	decfsz	(??_main+1)^0,f,c
   467  0008AE  D7FA               	bra	u487
   468  0008B0                     
   469                           ;Programa_principal.c: 121:     LCD_WriteChr_CGRAM(min,0);
   470  0008B0  0E37               	movlw	low _min
   471  0008B2  6E16               	movwf	LCD_WriteChr_CGRAM@buffer^0,c
   472  0008B4  0E08               	movlw	high _min
   473  0008B6  6E17               	movwf	(LCD_WriteChr_CGRAM@buffer+1)^0,c
   474  0008B8  0E00               	movlw	0
   475  0008BA  6E18               	movwf	LCD_WriteChr_CGRAM@Addres^0,c
   476  0008BC  EC75  F007         	call	_LCD_WriteChr_CGRAM	;wreg free
   477  0008C0                     
   478                           ;Programa_principal.c: 122:     LCD_WriteChr_CGRAM(b1,1);
   479  0008C0  0E2E               	movlw	low _b1
   480  0008C2  6E16               	movwf	LCD_WriteChr_CGRAM@buffer^0,c
   481  0008C4  0E08               	movlw	high _b1
   482  0008C6  6E17               	movwf	(LCD_WriteChr_CGRAM@buffer+1)^0,c
   483  0008C8  0E01               	movlw	1
   484  0008CA  6E18               	movwf	LCD_WriteChr_CGRAM@Addres^0,c
   485  0008CC  EC75  F007         	call	_LCD_WriteChr_CGRAM	;wreg free
   486  0008D0                     
   487                           ;Programa_principal.c: 123:     LCD_WriteChr_CGRAM(b2,2);
   488  0008D0  0E25               	movlw	low _b2
   489  0008D2  6E16               	movwf	LCD_WriteChr_CGRAM@buffer^0,c
   490  0008D4  0E08               	movlw	high _b2
   491  0008D6  6E17               	movwf	(LCD_WriteChr_CGRAM@buffer+1)^0,c
   492  0008D8  0E02               	movlw	2
   493  0008DA  6E18               	movwf	LCD_WriteChr_CGRAM@Addres^0,c
   494  0008DC  EC75  F007         	call	_LCD_WriteChr_CGRAM	;wreg free
   495  0008E0                     
   496                           ;Programa_principal.c: 124:     LCD_WriteChr_CGRAM(b3,3);
   497  0008E0  0E1C               	movlw	low _b3
   498  0008E2  6E16               	movwf	LCD_WriteChr_CGRAM@buffer^0,c
   499  0008E4  0E08               	movlw	high _b3
   500  0008E6  6E17               	movwf	(LCD_WriteChr_CGRAM@buffer+1)^0,c
   501  0008E8  0E03               	movlw	3
   502  0008EA  6E18               	movwf	LCD_WriteChr_CGRAM@Addres^0,c
   503  0008EC  EC75  F007         	call	_LCD_WriteChr_CGRAM	;wreg free
   504  0008F0                     
   505                           ;Programa_principal.c: 125:     LCD_WriteChr_CGRAM(b4,4);
   506  0008F0  0E13               	movlw	low _b4
   507  0008F2  6E16               	movwf	LCD_WriteChr_CGRAM@buffer^0,c
   508  0008F4  0E08               	movlw	high _b4
   509  0008F6  6E17               	movwf	(LCD_WriteChr_CGRAM@buffer+1)^0,c
   510  0008F8  0E04               	movlw	4
   511  0008FA  6E18               	movwf	LCD_WriteChr_CGRAM@Addres^0,c
   512  0008FC  EC75  F007         	call	_LCD_WriteChr_CGRAM	;wreg free
   513  000900                     
   514                           ;Programa_principal.c: 126:     LCD_WriteChr_CGRAM(b5,5);
   515  000900  0E0A               	movlw	low _b5
   516  000902  6E16               	movwf	LCD_WriteChr_CGRAM@buffer^0,c
   517  000904  0E08               	movlw	high _b5
   518  000906  6E17               	movwf	(LCD_WriteChr_CGRAM@buffer+1)^0,c
   519  000908  0E05               	movlw	5
   520  00090A  6E18               	movwf	LCD_WriteChr_CGRAM@Addres^0,c
   521  00090C  EC75  F007         	call	_LCD_WriteChr_CGRAM	;wreg free
   522  000910                     
   523                           ;Programa_principal.c: 127:     LCD_WriteChr_CGRAM(b6,6);
   524  000910  0E01               	movlw	low _b6
   525  000912  6E16               	movwf	LCD_WriteChr_CGRAM@buffer^0,c
   526  000914  0E08               	movlw	high _b6
   527  000916  6E17               	movwf	(LCD_WriteChr_CGRAM@buffer+1)^0,c
   528  000918  0E06               	movlw	6
   529  00091A  6E18               	movwf	LCD_WriteChr_CGRAM@Addres^0,c
   530  00091C  EC75  F007         	call	_LCD_WriteChr_CGRAM	;wreg free
   531  000920                     
   532                           ;Programa_principal.c: 128:     LCD_WriteChr_CGRAM(max,7);
   533  000920  0E40               	movlw	low _max
   534  000922  6E16               	movwf	LCD_WriteChr_CGRAM@buffer^0,c
   535  000924  0E08               	movlw	high _max
   536  000926  6E17               	movwf	(LCD_WriteChr_CGRAM@buffer+1)^0,c
   537  000928  0E07               	movlw	7
   538  00092A  6E18               	movwf	LCD_WriteChr_CGRAM@Addres^0,c
   539  00092C  EC75  F007         	call	_LCD_WriteChr_CGRAM	;wreg free
   540  000930                     
   541                           ;Programa_principal.c: 129:     _delay((unsigned long)((500)*(20000000L/4000.0)));
   542  000930  0E0D               	movlw	13
   543  000932  6E1B               	movwf	(??_main+1)^0,c
   544  000934  0EAF               	movlw	175
   545  000936  6E1A               	movwf	??_main^0,c
   546  000938  0EB6               	movlw	182
   547  00093A                     u497:
   548  00093A  2EE8               	decfsz	wreg,f,c
   549  00093C  D7FE               	bra	u497
   550  00093E  2E1A               	decfsz	??_main^0,f,c
   551  000940  D7FC               	bra	u497
   552  000942  2E1B               	decfsz	(??_main+1)^0,f,c
   553  000944  D7FA               	bra	u497
   554  000946  D000               	nop2	
   555  000948                     l1388:
   556                           
   557                           ;Programa_principal.c: 134:         if(p>0){
   558  000948  BE1F               	btfsc	(_p+1)^0,7,c
   559  00094A  EFAF  F004         	goto	u361
   560  00094E  501F               	movf	(_p+1)^0,w,c
   561  000950  E108               	bnz	u360
   562  000952  041E               	decf	_p^0,w,c
   563  000954  A0D8               	btfss	status,0,c
   564  000956  EFAF  F004         	goto	u361
   565  00095A  EFB1  F004         	goto	u360
   566  00095E                     u361:
   567  00095E  EF25  F005         	goto	l1416
   568  000962                     u360:
   569  000962                     
   570                           ;Programa_principal.c: 135:             LCD_gotoXY(0,0);
   571  000962  0E00               	movlw	0
   572  000964  6E14               	movwf	(LCD_gotoXY@x+1)^0,c
   573  000966  0E00               	movlw	0
   574  000968  6E13               	movwf	LCD_gotoXY@x^0,c
   575  00096A  0E00               	movlw	0
   576  00096C  6E16               	movwf	(LCD_gotoXY@y+1)^0,c
   577  00096E  0E00               	movlw	0
   578  000970  6E15               	movwf	LCD_gotoXY@y^0,c
   579  000972  EC90  F007         	call	_LCD_gotoXY	;wreg free
   580  000976                     
   581                           ;Programa_principal.c: 136:             putrsXLCD("VOLUMEN:");
   582  000976  0E49               	movlw	low STR_1
   583  000978  6E13               	movwf	putrsXLCD@buffer^0,c
   584  00097A  0E08               	movlw	high STR_1
   585  00097C  6E14               	movwf	(putrsXLCD@buffer+1)^0,c
   586  00097E  ECD1  F006         	call	_putrsXLCD	;wreg free
   587  000982                     
   588                           ;Programa_principal.c: 137:             _delay((unsigned long)((100)*(20000000L/4000.0))
      +                          );
   589  000982  0E03               	movlw	3
   590  000984  6E1B               	movwf	(??_main+1)^0,c
   591  000986  0E8A               	movlw	138
   592  000988  6E1A               	movwf	??_main^0,c
   593  00098A  0E56               	movlw	86
   594  00098C                     u507:
   595  00098C  2EE8               	decfsz	wreg,f,c
   596  00098E  D7FE               	bra	u507
   597  000990  2E1A               	decfsz	??_main^0,f,c
   598  000992  D7FC               	bra	u507
   599  000994  2E1B               	decfsz	(??_main+1)^0,f,c
   600  000996  D7FA               	bra	u507
   601  000998                     
   602                           ;Programa_principal.c: 138:             for(i=0;i<p;i++){
   603  000998  0E00               	movlw	0
   604  00099A  6E1D               	movwf	(_i+1)^0,c
   605  00099C  0E00               	movlw	0
   606  00099E  6E1C               	movwf	_i^0,c
   607  0009A0  EF14  F005         	goto	l1414
   608  0009A4                     l1398:
   609                           
   610                           ;Programa_principal.c: 139:                 if(p<=15){
   611  0009A4  BE1F               	btfsc	(_p+1)^0,7,c
   612  0009A6  EFE0  F004         	goto	u370
   613  0009AA  501F               	movf	(_p+1)^0,w,c
   614  0009AC  E107               	bnz	u371
   615  0009AE  0E10               	movlw	16
   616  0009B0  5C1E               	subwf	_p^0,w,c
   617  0009B2  B0D8               	btfsc	status,0,c
   618  0009B4  EFDE  F004         	goto	u371
   619  0009B8  EFE0  F004         	goto	u370
   620  0009BC                     u371:
   621  0009BC  EF00  F005         	goto	l1406
   622  0009C0                     u370:
   623  0009C0                     
   624                           ;Programa_principal.c: 140:                     LCD_gotoXY(1,i);
   625  0009C0  0E00               	movlw	0
   626  0009C2  6E14               	movwf	(LCD_gotoXY@x+1)^0,c
   627  0009C4  0E01               	movlw	1
   628  0009C6  6E13               	movwf	LCD_gotoXY@x^0,c
   629  0009C8  C01C  F015         	movff	_i,LCD_gotoXY@y
   630  0009CC  C01D  F016         	movff	_i+1,LCD_gotoXY@y+1
   631  0009D0  EC90  F007         	call	_LCD_gotoXY	;wreg free
   632  0009D4                     
   633                           ;Programa_principal.c: 141:                     WriteDataXLCD(cgr[i]);
   634  0009D4  0E01               	movlw	low _cgr
   635  0009D6  241C               	addwf	_i^0,w,c
   636  0009D8  6ED9               	movwf	fsr2l,c
   637  0009DA  0E00               	movlw	high _cgr
   638  0009DC  201D               	addwfc	(_i+1)^0,w,c
   639  0009DE  6EDA               	movwf	fsr2h,c
   640  0009E0  50DF               	movf	indf2,w,c
   641  0009E2  ECA8  F006         	call	_WriteDataXLCD
   642  0009E6                     l1404:
   643                           
   644                           ;Programa_principal.c: 142:                     _delay((unsigned long)((100)*(20000000L/
      +                          4000.0)));
   645  0009E6  0E03               	movlw	3
   646  0009E8  6E1B               	movwf	(??_main+1)^0,c
   647  0009EA  0E8A               	movlw	138
   648  0009EC  6E1A               	movwf	??_main^0,c
   649  0009EE  0E56               	movlw	86
   650  0009F0                     u517:
   651  0009F0  2EE8               	decfsz	wreg,f,c
   652  0009F2  D7FE               	bra	u517
   653  0009F4  2E1A               	decfsz	??_main^0,f,c
   654  0009F6  D7FC               	bra	u517
   655  0009F8  2E1B               	decfsz	(??_main+1)^0,f,c
   656  0009FA  D7FA               	bra	u517
   657                           
   658                           ;Programa_principal.c: 143:                 }else{
   659  0009FC  EF12  F005         	goto	l1412
   660  000A00                     l1406:
   661                           
   662                           ;Programa_principal.c: 144:                     LCD_gotoXY(1,0);
   663  000A00  0E00               	movlw	0
   664  000A02  6E14               	movwf	(LCD_gotoXY@x+1)^0,c
   665  000A04  0E01               	movlw	1
   666  000A06  6E13               	movwf	LCD_gotoXY@x^0,c
   667  000A08  0E00               	movlw	0
   668  000A0A  6E16               	movwf	(LCD_gotoXY@y+1)^0,c
   669  000A0C  0E00               	movlw	0
   670  000A0E  6E15               	movwf	LCD_gotoXY@y^0,c
   671  000A10  EC90  F007         	call	_LCD_gotoXY	;wreg free
   672  000A14                     
   673                           ;Programa_principal.c: 145:                     putrsXLCD("MAX");
   674  000A14  0E56               	movlw	low STR_3
   675  000A16  6E13               	movwf	putrsXLCD@buffer^0,c
   676  000A18  0E08               	movlw	high STR_3
   677  000A1A  6E14               	movwf	(putrsXLCD@buffer+1)^0,c
   678  000A1C  ECD1  F006         	call	_putrsXLCD	;wreg free
   679  000A20  EFF3  F004         	goto	l1404
   680  000A24                     l1412:
   681                           
   682                           ;Programa_principal.c: 148:             }
   683  000A24  4A1C               	infsnz	_i^0,f,c
   684  000A26  2A1D               	incf	(_i+1)^0,f,c
   685  000A28                     l1414:
   686  000A28  501E               	movf	_p^0,w,c
   687  000A2A  5C1C               	subwf	_i^0,w,c
   688  000A2C  501D               	movf	(_i+1)^0,w,c
   689  000A2E  0A80               	xorlw	128
   690  000A30  6E1A               	movwf	??_main^0,c
   691  000A32  501F               	movf	(_p+1)^0,w,c
   692  000A34  0A80               	xorlw	128
   693  000A36  581A               	subwfb	??_main^0,w,c
   694  000A38  A0D8               	btfss	status,0,c
   695  000A3A  EF21  F005         	goto	u381
   696  000A3E  EF23  F005         	goto	u380
   697  000A42                     u381:
   698  000A42  EFD2  F004         	goto	l1398
   699  000A46                     u380:
   700  000A46  EFA4  F004         	goto	l1388
   701  000A4A                     l1416:
   702                           
   703                           ;Programa_principal.c: 150:             LCD_gotoXY(0,0);
   704  000A4A  0E00               	movlw	0
   705  000A4C  6E14               	movwf	(LCD_gotoXY@x+1)^0,c
   706  000A4E  0E00               	movlw	0
   707  000A50  6E13               	movwf	LCD_gotoXY@x^0,c
   708  000A52  0E00               	movlw	0
   709  000A54  6E16               	movwf	(LCD_gotoXY@y+1)^0,c
   710  000A56  0E00               	movlw	0
   711  000A58  6E15               	movwf	LCD_gotoXY@y^0,c
   712  000A5A  EC90  F007         	call	_LCD_gotoXY	;wreg free
   713  000A5E                     
   714                           ;Programa_principal.c: 151:             putrsXLCD("VOLUMEN:");
   715  000A5E  0E49               	movlw	low STR_1
   716  000A60  6E13               	movwf	putrsXLCD@buffer^0,c
   717  000A62  0E08               	movlw	high STR_1
   718  000A64  6E14               	movwf	(putrsXLCD@buffer+1)^0,c
   719  000A66  ECD1  F006         	call	_putrsXLCD	;wreg free
   720  000A6A                     
   721                           ;Programa_principal.c: 152:             _delay((unsigned long)((100)*(20000000L/4000.0))
      +                          );
   722  000A6A  0E03               	movlw	3
   723  000A6C  6E1B               	movwf	(??_main+1)^0,c
   724  000A6E  0E8A               	movlw	138
   725  000A70  6E1A               	movwf	??_main^0,c
   726  000A72  0E56               	movlw	86
   727  000A74                     u527:
   728  000A74  2EE8               	decfsz	wreg,f,c
   729  000A76  D7FE               	bra	u527
   730  000A78  2E1A               	decfsz	??_main^0,f,c
   731  000A7A  D7FC               	bra	u527
   732  000A7C  2E1B               	decfsz	(??_main+1)^0,f,c
   733  000A7E  D7FA               	bra	u527
   734  000A80                     
   735                           ;Programa_principal.c: 153:             LCD_gotoXY(1,0);
   736  000A80  0E00               	movlw	0
   737  000A82  6E14               	movwf	(LCD_gotoXY@x+1)^0,c
   738  000A84  0E01               	movlw	1
   739  000A86  6E13               	movwf	LCD_gotoXY@x^0,c
   740  000A88  0E00               	movlw	0
   741  000A8A  6E16               	movwf	(LCD_gotoXY@y+1)^0,c
   742  000A8C  0E00               	movlw	0
   743  000A8E  6E15               	movwf	LCD_gotoXY@y^0,c
   744  000A90  EC90  F007         	call	_LCD_gotoXY	;wreg free
   745  000A94                     
   746                           ;Programa_principal.c: 154:             putrsXLCD("MIN");
   747  000A94  0E52               	movlw	low STR_5
   748  000A96  6E13               	movwf	putrsXLCD@buffer^0,c
   749  000A98  0E08               	movlw	high STR_5
   750  000A9A  6E14               	movwf	(putrsXLCD@buffer+1)^0,c
   751  000A9C  ECD1  F006         	call	_putrsXLCD	;wreg free
   752                           
   753                           ;Programa_principal.c: 155:             _delay((unsigned long)((100)*(20000000L/4000.0))
      +                          );
   754  000AA0  0E03               	movlw	3
   755  000AA2  6E1B               	movwf	(??_main+1)^0,c
   756  000AA4  0E8A               	movlw	138
   757  000AA6  6E1A               	movwf	??_main^0,c
   758  000AA8  0E56               	movlw	86
   759  000AAA                     u537:
   760  000AAA  2EE8               	decfsz	wreg,f,c
   761  000AAC  D7FE               	bra	u537
   762  000AAE  2E1A               	decfsz	??_main^0,f,c
   763  000AB0  D7FC               	bra	u537
   764  000AB2  2E1B               	decfsz	(??_main+1)^0,f,c
   765  000AB4  D7FA               	bra	u537
   766  000AB6  EFA4  F004         	goto	l1388
   767  000ABA  EF07  F000         	goto	start
   768  000ABE                     __end_of_main:
   769                           	callstack 0
   770                           
   771 ;; *************** function _putrsXLCD *****************
   772 ;; Defined at:
   773 ;;		line 118 in file "LCD_libreria.c"
   774 ;; Parameters:    Size  Location     Type
   775 ;;  buffer          2    3[COMRAM] PTR const unsigned char 
   776 ;;		 -> STR_5(4), STR_4(9), STR_3(4), STR_2(9), 
   777 ;;		 -> STR_1(9), 
   778 ;; Auto vars:     Size  Location     Type
   779 ;;		None
   780 ;; Return value:  Size  Location     Type
   781 ;;                  1    wreg      void 
   782 ;; Registers used:
   783 ;;		wreg, status,2, status,0, tblptrl, tblptrh, tblptru, cstack
   784 ;; Tracked objects:
   785 ;;		On entry : 0/0
   786 ;;		On exit  : 0/0
   787 ;;		Unchanged: 0/0
   788 ;; Data sizes:     COMRAM   BANK0   BANK1   BANK2   BANK3   BANK4   BANK5   BANK6   BANK7
   789 ;;      Params:         2       0       0       0       0       0       0       0       0
   790 ;;      Locals:         0       0       0       0       0       0       0       0       0
   791 ;;      Temps:          0       0       0       0       0       0       0       0       0
   792 ;;      Totals:         2       0       0       0       0       0       0       0       0
   793 ;;Total ram usage:        2 bytes
   794 ;; Hardware stack levels used: 1
   795 ;; Hardware stack levels required when called: 6
   796 ;; This function calls:
   797 ;;		_BusyXLCD
   798 ;;		_WriteDataXLCD
   799 ;; This function is called by:
   800 ;;		_main
   801 ;; This function uses a non-reentrant model
   802 ;;
   803                           
   804                           	psect	text1
   805  000DA2                     __ptext1:
   806                           	callstack 0
   807  000DA2                     _putrsXLCD:
   808                           	callstack 24
   809  000DA2                     
   810                           ;LCD_libreria.c: 118: void putrsXLCD(const char *buffer);LCD_libreria.c: 119: {;LCD_libr
      +                          eria.c: 120:         while(*buffer)
   811  000DA2  EFE7  F006         	goto	l1312
   812  000DA6                     l1306:
   813  000DA6  ECF6  F006         	call	_BusyXLCD	;wreg free
   814  000DAA  0900               	iorlw	0
   815  000DAC  A4D8               	btfss	status,2,c
   816  000DAE  EFDB  F006         	goto	u331
   817  000DB2  EFDD  F006         	goto	u330
   818  000DB6                     u331:
   819  000DB6  EFD3  F006         	goto	l1306
   820  000DBA                     u330:
   821  000DBA                     
   822                           ;LCD_libreria.c: 123:                 WriteDataXLCD(*buffer);
   823  000DBA  C013  FFF6         	movff	putrsXLCD@buffer,tblptrl
   824  000DBE  C014  FFF7         	movff	putrsXLCD@buffer+1,tblptrh
   825  000DC2                     	if	0	;tblptru may be non-zero
   826  000DC2                     	endif
   827  000DC2                     	if	0	;tblptru may be non-zero
   828  000DC2                     	endif
   829  000DC2  0008               	tblrd		*
   830  000DC4  50F5               	movf	tablat,w,c
   831  000DC6  ECA8  F006         	call	_WriteDataXLCD
   832  000DCA                     
   833                           ;LCD_libreria.c: 124:                 buffer++;
   834  000DCA  4A13               	infsnz	putrsXLCD@buffer^0,f,c
   835  000DCC  2A14               	incf	(putrsXLCD@buffer+1)^0,f,c
   836  000DCE                     l1312:
   837                           
   838                           ;LCD_libreria.c: 120:         while(*buffer)
   839  000DCE  C013  FFF6         	movff	putrsXLCD@buffer,tblptrl
   840  000DD2  C014  FFF7         	movff	putrsXLCD@buffer+1,tblptrh
   841  000DD6                     	if	0	;tblptru may be non-zero
   842  000DD6                     	endif
   843  000DD6                     	if	0	;tblptru may be non-zero
   844  000DD6                     	endif
   845  000DD6  0008               	tblrd		*
   846  000DD8  50F5               	movf	tablat,w,c
   847  000DDA  0900               	iorlw	0
   848  000DDC  A4D8               	btfss	status,2,c
   849  000DDE  EFF3  F006         	goto	u341
   850  000DE2  EFF5  F006         	goto	u340
   851  000DE6                     u341:
   852  000DE6  EFD3  F006         	goto	l1306
   853  000DEA                     u340:
   854  000DEA  0012               	return		;funcret
   855  000DEC                     __end_of_putrsXLCD:
   856                           	callstack 0
   857                           
   858 ;; *************** function _LCD_gotoXY *****************
   859 ;; Defined at:
   860 ;;		line 35 in file "LCD_libreria.c"
   861 ;; Parameters:    Size  Location     Type
   862 ;;  x               2    3[COMRAM] int 
   863 ;;  y               2    5[COMRAM] int 
   864 ;; Auto vars:     Size  Location     Type
   865 ;;		None
   866 ;; Return value:  Size  Location     Type
   867 ;;                  1    wreg      void 
   868 ;; Registers used:
   869 ;;		wreg, status,2, status,0, cstack
   870 ;; Tracked objects:
   871 ;;		On entry : 0/0
   872 ;;		On exit  : 0/0
   873 ;;		Unchanged: 0/0
   874 ;; Data sizes:     COMRAM   BANK0   BANK1   BANK2   BANK3   BANK4   BANK5   BANK6   BANK7
   875 ;;      Params:         4       0       0       0       0       0       0       0       0
   876 ;;      Locals:         0       0       0       0       0       0       0       0       0
   877 ;;      Temps:          0       0       0       0       0       0       0       0       0
   878 ;;      Totals:         4       0       0       0       0       0       0       0       0
   879 ;;Total ram usage:        4 bytes
   880 ;; Hardware stack levels used: 1
   881 ;; Hardware stack levels required when called: 5
   882 ;; This function calls:
   883 ;;		_WriteCmdXLCD
   884 ;; This function is called by:
   885 ;;		_main
   886 ;; This function uses a non-reentrant model
   887 ;;
   888                           
   889                           	psect	text2
   890  000F20                     __ptext2:
   891                           	callstack 0
   892  000F20                     _LCD_gotoXY:
   893                           	callstack 25
   894  000F20                     
   895                           ;LCD_libreria.c: 35: void LCD_gotoXY(int x,int y);LCD_libreria.c: 36: {;LCD_libreria.c: 
      +                          37:     if ( x>0 ){WriteCmdXLCD(0b11000000 +y);}
   896  000F20  BE14               	btfsc	(LCD_gotoXY@x+1)^0,7,c
   897  000F22  EF9B  F007         	goto	u321
   898  000F26  5014               	movf	(LCD_gotoXY@x+1)^0,w,c
   899  000F28  E108               	bnz	u320
   900  000F2A  0413               	decf	LCD_gotoXY@x^0,w,c
   901  000F2C  A0D8               	btfss	status,0,c
   902  000F2E  EF9B  F007         	goto	u321
   903  000F32  EF9D  F007         	goto	u320
   904  000F36                     u321:
   905  000F36  EFA3  F007         	goto	l1300
   906  000F3A                     u320:
   907  000F3A  5015               	movf	LCD_gotoXY@y^0,w,c
   908  000F3C  0FC0               	addlw	192
   909  000F3E  EC19  F007         	call	_WriteCmdXLCD
   910  000F42  EFA7  F007         	goto	l120
   911  000F46                     l1300:
   912  000F46  5015               	movf	LCD_gotoXY@y^0,w,c
   913  000F48  0F80               	addlw	128
   914  000F4A  EC19  F007         	call	_WriteCmdXLCD
   915  000F4E                     l120:
   916  000F4E  0012               	return		;funcret
   917  000F50                     __end_of_LCD_gotoXY:
   918                           	callstack 0
   919                           
   920 ;; *************** function _LCD_WriteChr_CGRAM *****************
   921 ;; Defined at:
   922 ;;		line 43 in file "LCD_libreria.c"
   923 ;; Parameters:    Size  Location     Type
   924 ;;  buffer          2    6[COMRAM] PTR const unsigned char 
   925 ;;		 -> max(9), b6(9), b5(9), b4(9), 
   926 ;;		 -> b3(9), b2(9), b1(9), min(9), 
   927 ;;  Addres          1    8[COMRAM] unsigned char 
   928 ;; Auto vars:     Size  Location     Type
   929 ;;  i               1    9[COMRAM] unsigned char 
   930 ;; Return value:  Size  Location     Type
   931 ;;                  1    wreg      void 
   932 ;; Registers used:
   933 ;;		wreg, status,2, status,0, tblptrl, tblptrh, tblptru, prodl, prodh, cstack
   934 ;; Tracked objects:
   935 ;;		On entry : 0/0
   936 ;;		On exit  : 0/0
   937 ;;		Unchanged: 0/0
   938 ;; Data sizes:     COMRAM   BANK0   BANK1   BANK2   BANK3   BANK4   BANK5   BANK6   BANK7
   939 ;;      Params:         3       0       0       0       0       0       0       0       0
   940 ;;      Locals:         1       0       0       0       0       0       0       0       0
   941 ;;      Temps:          0       0       0       0       0       0       0       0       0
   942 ;;      Totals:         4       0       0       0       0       0       0       0       0
   943 ;;Total ram usage:        4 bytes
   944 ;; Hardware stack levels used: 1
   945 ;; Hardware stack levels required when called: 6
   946 ;; This function calls:
   947 ;;		_SetCGRamAddr
   948 ;;		_WriteDataXLCD
   949 ;; This function is called by:
   950 ;;		_main
   951 ;; This function uses a non-reentrant model
   952 ;;
   953                           
   954                           	psect	text3
   955  000EEA                     __ptext3:
   956                           	callstack 0
   957  000EEA                     _LCD_WriteChr_CGRAM:
   958                           	callstack 24
   959  000EEA                     
   960                           ;LCD_libreria.c: 46:     SetCGRamAddr(Addres*8);
   961  000EEA  5018               	movf	LCD_WriteChr_CGRAM@Addres^0,w,c
   962  000EEC  0D08               	mullw	8
   963  000EEE  50F3               	movf	243,w,c
   964  000EF0  EC40  F006         	call	_SetCGRamAddr
   965  000EF4                     
   966                           ;LCD_libreria.c: 47:     for (i=0;i<8;i++)
   967  000EF4  0E00               	movlw	0
   968  000EF6  6E19               	movwf	LCD_WriteChr_CGRAM@i^0,c
   969  000EF8                     l1324:
   970                           
   971                           ;LCD_libreria.c: 48:     { WriteDataXLCD(*buffer);
   972  000EF8  C016  FFF6         	movff	LCD_WriteChr_CGRAM@buffer,tblptrl
   973  000EFC  C017  FFF7         	movff	LCD_WriteChr_CGRAM@buffer+1,tblptrh
   974  000F00                     	if	0	;tblptru may be non-zero
   975  000F00                     	endif
   976  000F00                     	if	0	;tblptru may be non-zero
   977  000F00                     	endif
   978  000F00  0008               	tblrd		*
   979  000F02  50F5               	movf	tablat,w,c
   980  000F04  ECA8  F006         	call	_WriteDataXLCD
   981  000F08                     
   982                           ;LCD_libreria.c: 49:        ++buffer;
   983  000F08  4A16               	infsnz	LCD_WriteChr_CGRAM@buffer^0,f,c
   984  000F0A  2A17               	incf	(LCD_WriteChr_CGRAM@buffer+1)^0,f,c
   985  000F0C                     
   986                           ;LCD_libreria.c: 50:     }
   987  000F0C  2A19               	incf	LCD_WriteChr_CGRAM@i^0,f,c
   988  000F0E  0E07               	movlw	7
   989  000F10  6419               	cpfsgt	LCD_WriteChr_CGRAM@i^0,c
   990  000F12  EF8D  F007         	goto	u351
   991  000F16  EF8F  F007         	goto	u350
   992  000F1A                     u351:
   993  000F1A  EF7C  F007         	goto	l1324
   994  000F1E                     u350:
   995  000F1E  0012               	return		;funcret
   996  000F20                     __end_of_LCD_WriteChr_CGRAM:
   997                           	callstack 0
   998                           
   999 ;; *************** function _WriteDataXLCD *****************
  1000 ;; Defined at:
  1001 ;;		line 375 in file "LCD_libreria.c"
  1002 ;; Parameters:    Size  Location     Type
  1003 ;;  data            1    wreg     unsigned char 
  1004 ;; Auto vars:     Size  Location     Type
  1005 ;;  data            1    2[COMRAM] unsigned char 
  1006 ;; Return value:  Size  Location     Type
  1007 ;;                  1    wreg      void 
  1008 ;; Registers used:
  1009 ;;		wreg, status,2, status,0, cstack
  1010 ;; Tracked objects:
  1011 ;;		On entry : 0/0
  1012 ;;		On exit  : 0/0
  1013 ;;		Unchanged: 0/0
  1014 ;; Data sizes:     COMRAM   BANK0   BANK1   BANK2   BANK3   BANK4   BANK5   BANK6   BANK7
  1015 ;;      Params:         0       0       0       0       0       0       0       0       0
  1016 ;;      Locals:         1       0       0       0       0       0       0       0       0
  1017 ;;      Temps:          0       0       0       0       0       0       0       0       0
  1018 ;;      Totals:         1       0       0       0       0       0       0       0       0
  1019 ;;Total ram usage:        1 bytes
  1020 ;; Hardware stack levels used: 1
  1021 ;; Hardware stack levels required when called: 5
  1022 ;; This function calls:
  1023 ;;		_BusyXLCD
  1024 ;;		_DelayFor18TCY
  1025 ;; This function is called by:
  1026 ;;		_main
  1027 ;;		_LCD_WriteChr_CGRAM
  1028 ;;		_putrsXLCD
  1029 ;;		_putsXLCD
  1030 ;; This function uses a non-reentrant model
  1031 ;;
  1032                           
  1033                           	psect	text4
  1034  000D50                     __ptext4:
  1035                           	callstack 0
  1036  000D50                     _WriteDataXLCD:
  1037                           	callstack 24
  1038                           
  1039                           ;incstack = 0
  1040                           ;WriteDataXLCD@data stored from wreg
  1041  000D50  6E12               	movwf	WriteDataXLCD@data^0,c
  1042  000D52                     l1018:
  1043  000D52  ECF6  F006         	call	_BusyXLCD	;wreg free
  1044  000D56  0900               	iorlw	0
  1045  000D58  A4D8               	btfss	status,2,c
  1046  000D5A  EFB1  F006         	goto	u101
  1047  000D5E  EFB3  F006         	goto	u100
  1048  000D62                     u101:
  1049  000D62  EFA9  F006         	goto	l1018
  1050  000D66                     u100:
  1051  000D66                     
  1052                           ;LCD_libreria.c: 395:         TRISD &= 0xf0;
  1053  000D66  0EF0               	movlw	240
  1054  000D68  1695               	andwf	149,f,c	;volatile
  1055                           
  1056                           ;LCD_libreria.c: 396:         PORTD &= 0xf0;
  1057  000D6A  0EF0               	movlw	240
  1058  000D6C  1683               	andwf	131,f,c	;volatile
  1059                           
  1060                           ;LCD_libreria.c: 397:         PORTD |= ((data>>4)&0x0f);
  1061  000D6E  3812               	swapf	WriteDataXLCD@data^0,w,c
  1062  000D70  0B0F               	andlw	15
  1063  000D72  0B0F               	andlw	15
  1064  000D74  1283               	iorwf	131,f,c	;volatile
  1065  000D76                     
  1066                           ;LCD_libreria.c: 399:         LATDbits.LATD5 = 1;
  1067  000D76  8A8C               	bsf	140,5,c	;volatile
  1068  000D78                     
  1069                           ;LCD_libreria.c: 400:         LATDbits.LATD6 = 0;
  1070  000D78  9C8C               	bcf	140,6,c	;volatile
  1071  000D7A                     
  1072                           ;LCD_libreria.c: 401:         DelayFor18TCY();
  1073  000D7A  ECBC  F007         	call	_DelayFor18TCY	;wreg free
  1074  000D7E                     
  1075                           ;LCD_libreria.c: 402:         LATDbits.LATD4 = 1;
  1076  000D7E  888C               	bsf	140,4,c	;volatile
  1077  000D80                     
  1078                           ;LCD_libreria.c: 403:         DelayFor18TCY();
  1079  000D80  ECBC  F007         	call	_DelayFor18TCY	;wreg free
  1080  000D84                     
  1081                           ;LCD_libreria.c: 404:         LATDbits.LATD4 = 0;
  1082  000D84  988C               	bcf	140,4,c	;volatile
  1083                           
  1084                           ;LCD_libreria.c: 409:         PORTD &= 0xf0;
  1085  000D86  0EF0               	movlw	240
  1086  000D88  1683               	andwf	131,f,c	;volatile
  1087                           
  1088                           ;LCD_libreria.c: 410:         PORTD |= (data&0x0f);
  1089  000D8A  5012               	movf	WriteDataXLCD@data^0,w,c
  1090  000D8C  0B0F               	andlw	15
  1091  000D8E  1283               	iorwf	131,f,c	;volatile
  1092  000D90                     
  1093                           ;LCD_libreria.c: 412:         DelayFor18TCY();
  1094  000D90  ECBC  F007         	call	_DelayFor18TCY	;wreg free
  1095  000D94                     
  1096                           ;LCD_libreria.c: 413:         LATDbits.LATD4 = 1;
  1097  000D94  888C               	bsf	140,4,c	;volatile
  1098  000D96                     
  1099                           ;LCD_libreria.c: 414:         DelayFor18TCY();
  1100  000D96  ECBC  F007         	call	_DelayFor18TCY	;wreg free
  1101  000D9A                     
  1102                           ;LCD_libreria.c: 415:         LATDbits.LATD4 = 0;
  1103  000D9A  988C               	bcf	140,4,c	;volatile
  1104                           
  1105                           ;LCD_libreria.c: 419:         TRISD |= 0x0f;
  1106  000D9C  0E0F               	movlw	15
  1107  000D9E  1295               	iorwf	149,f,c	;volatile
  1108  000DA0  0012               	return		;funcret
  1109  000DA2                     __end_of_WriteDataXLCD:
  1110                           	callstack 0
  1111                           
  1112 ;; *************** function _SetCGRamAddr *****************
  1113 ;; Defined at:
  1114 ;;		line 232 in file "LCD_libreria.c"
  1115 ;; Parameters:    Size  Location     Type
  1116 ;;  CGaddr          1    wreg     unsigned char 
  1117 ;; Auto vars:     Size  Location     Type
  1118 ;;  CGaddr          1    5[COMRAM] unsigned char 
  1119 ;; Return value:  Size  Location     Type
  1120 ;;                  1    wreg      void 
  1121 ;; Registers used:
  1122 ;;		wreg, status,2, status,0, cstack
  1123 ;; Tracked objects:
  1124 ;;		On entry : 0/0
  1125 ;;		On exit  : 0/0
  1126 ;;		Unchanged: 0/0
  1127 ;; Data sizes:     COMRAM   BANK0   BANK1   BANK2   BANK3   BANK4   BANK5   BANK6   BANK7
  1128 ;;      Params:         0       0       0       0       0       0       0       0       0
  1129 ;;      Locals:         1       0       0       0       0       0       0       0       0
  1130 ;;      Temps:          3       0       0       0       0       0       0       0       0
  1131 ;;      Totals:         4       0       0       0       0       0       0       0       0
  1132 ;;Total ram usage:        4 bytes
  1133 ;; Hardware stack levels used: 1
  1134 ;; Hardware stack levels required when called: 5
  1135 ;; This function calls:
  1136 ;;		_BusyXLCD
  1137 ;; This function is called by:
  1138 ;;		_LCD_WriteChr_CGRAM
  1139 ;; This function uses a non-reentrant model
  1140 ;;
  1141                           
  1142                           	psect	text5
  1143  000C80                     __ptext5:
  1144                           	callstack 0
  1145  000C80                     _SetCGRamAddr:
  1146                           	callstack 24
  1147                           
  1148                           ;incstack = 0
  1149                           ;SetCGRamAddr@CGaddr stored from wreg
  1150  000C80  6E15               	movwf	SetCGRamAddr@CGaddr^0,c
  1151  000C82                     l1046:
  1152  000C82  ECF6  F006         	call	_BusyXLCD	;wreg free
  1153  000C86  0900               	iorlw	0
  1154  000C88  A4D8               	btfss	status,2,c
  1155  000C8A  EF49  F006         	goto	u111
  1156  000C8E  EF4B  F006         	goto	u110
  1157  000C92                     u111:
  1158  000C92  EF41  F006         	goto	l1046
  1159  000C96                     u110:
  1160  000C96                     
  1161                           ;LCD_libreria.c: 252:         TRISD &= 0xf0;
  1162  000C96  0EF0               	movlw	240
  1163  000C98  1695               	andwf	149,f,c	;volatile
  1164                           
  1165                           ;LCD_libreria.c: 253:         PORTD &= 0xf0;
  1166  000C9A  0EF0               	movlw	240
  1167  000C9C  1683               	andwf	131,f,c	;volatile
  1168                           
  1169                           ;LCD_libreria.c: 254:         PORTD |= (((CGaddr |0b01000000)>>4) & 0x0f);
  1170  000C9E  5015               	movf	SetCGRamAddr@CGaddr^0,w,c
  1171  000CA0  6E12               	movwf	??_SetCGRamAddr^0,c
  1172  000CA2  6A13               	clrf	(??_SetCGRamAddr+1)^0,c
  1173  000CA4  0E40               	movlw	64
  1174  000CA6  1212               	iorwf	??_SetCGRamAddr^0,f,c
  1175  000CA8  0E00               	movlw	0
  1176  000CAA  1213               	iorwf	(??_SetCGRamAddr+1)^0,f,c
  1177  000CAC  0E04               	movlw	4
  1178  000CAE  6E14               	movwf	(??_SetCGRamAddr+2)^0,c
  1179  000CB0                     u125:
  1180  000CB0  3413               	rlcf	(??_SetCGRamAddr+1)^0,w,c
  1181  000CB2  3213               	rrcf	(??_SetCGRamAddr+1)^0,f,c
  1182  000CB4  3212               	rrcf	??_SetCGRamAddr^0,f,c
  1183  000CB6  2E14               	decfsz	(??_SetCGRamAddr+2)^0,f,c
  1184  000CB8  EF58  F006         	goto	u125
  1185  000CBC  5012               	movf	??_SetCGRamAddr^0,w,c
  1186  000CBE  0B0F               	andlw	15
  1187  000CC0  1283               	iorwf	131,f,c	;volatile
  1188  000CC2                     
  1189                           ;LCD_libreria.c: 256:         LATDbits.LATD6 = 0;
  1190  000CC2  9C8C               	bcf	140,6,c	;volatile
  1191  000CC4                     
  1192                           ;LCD_libreria.c: 257:         LATDbits.LATD5 = 0;
  1193  000CC4  9A8C               	bcf	140,5,c	;volatile
  1194  000CC6                     
  1195                           ;LCD_libreria.c: 258:         _delay((unsigned long)((1)*(20000000L/4000000.0)));
  1196  000CC6  D000               	nop2		;2 cycle nop
  1197  000CC8  D000               	nop2		;2 cycle nop
  1198  000CCA  F000               	nop	
  1199  000CCC                     
  1200                           ;LCD_libreria.c: 259:         LATDbits.LATD4 = 1;
  1201  000CCC  888C               	bsf	140,4,c	;volatile
  1202  000CCE                     
  1203                           ;LCD_libreria.c: 260:         _delay((unsigned long)((1)*(20000000L/4000000.0)));
  1204  000CCE  D000               	nop2		;2 cycle nop
  1205  000CD0  D000               	nop2		;2 cycle nop
  1206  000CD2  F000               	nop	
  1207  000CD4                     
  1208                           ;LCD_libreria.c: 261:         LATDbits.LATD4 = 0;
  1209  000CD4  988C               	bcf	140,4,c	;volatile
  1210                           
  1211                           ;LCD_libreria.c: 266:         PORTD &= 0xf0;
  1212  000CD6  0EF0               	movlw	240
  1213  000CD8  1683               	andwf	131,f,c	;volatile
  1214                           
  1215                           ;LCD_libreria.c: 267:         PORTD |= (CGaddr&0x0f);
  1216  000CDA  5015               	movf	SetCGRamAddr@CGaddr^0,w,c
  1217  000CDC  0B0F               	andlw	15
  1218  000CDE  1283               	iorwf	131,f,c	;volatile
  1219  000CE0                     
  1220                           ;LCD_libreria.c: 269:         _delay((unsigned long)((1)*(20000000L/4000000.0)));
  1221  000CE0  D000               	nop2		;2 cycle nop
  1222  000CE2  D000               	nop2		;2 cycle nop
  1223  000CE4  F000               	nop	
  1224  000CE6                     
  1225                           ;LCD_libreria.c: 270:         LATDbits.LATD4 = 1;
  1226  000CE6  888C               	bsf	140,4,c	;volatile
  1227  000CE8                     
  1228                           ;LCD_libreria.c: 271:         _delay((unsigned long)((1)*(20000000L/4000000.0)));
  1229  000CE8  D000               	nop2		;2 cycle nop
  1230  000CEA  D000               	nop2		;2 cycle nop
  1231  000CEC  F000               	nop	
  1232  000CEE                     
  1233                           ;LCD_libreria.c: 272:         LATDbits.LATD4 = 0;
  1234  000CEE  988C               	bcf	140,4,c	;volatile
  1235                           
  1236                           ;LCD_libreria.c: 276:         TRISD |= 0x0f;
  1237  000CF0  0E0F               	movlw	15
  1238  000CF2  1295               	iorwf	149,f,c	;volatile
  1239  000CF4  0012               	return		;funcret
  1240  000CF6                     __end_of_SetCGRamAddr:
  1241                           	callstack 0
  1242                           
  1243 ;; *************** function _LCD_Init *****************
  1244 ;; Defined at:
  1245 ;;		line 86 in file "Programa_principal.c"
  1246 ;; Parameters:    Size  Location     Type
  1247 ;;		None
  1248 ;; Auto vars:     Size  Location     Type
  1249 ;;		None
  1250 ;; Return value:  Size  Location     Type
  1251 ;;                  1    wreg      void 
  1252 ;; Registers used:
  1253 ;;		wreg, status,2, status,0, cstack
  1254 ;; Tracked objects:
  1255 ;;		On entry : 0/0
  1256 ;;		On exit  : 0/0
  1257 ;;		Unchanged: 0/0
  1258 ;; Data sizes:     COMRAM   BANK0   BANK1   BANK2   BANK3   BANK4   BANK5   BANK6   BANK7
  1259 ;;      Params:         0       0       0       0       0       0       0       0       0
  1260 ;;      Locals:         0       0       0       0       0       0       0       0       0
  1261 ;;      Temps:          0       0       0       0       0       0       0       0       0
  1262 ;;      Totals:         0       0       0       0       0       0       0       0       0
  1263 ;;Total ram usage:        0 bytes
  1264 ;; Hardware stack levels used: 1
  1265 ;; Hardware stack levels required when called: 6
  1266 ;; This function calls:
  1267 ;;		_BusyXLCD
  1268 ;;		_OpenXLCD
  1269 ;;		_WriteCmdXLCD
  1270 ;; This function is called by:
  1271 ;;		_main
  1272 ;; This function uses a non-reentrant model
  1273 ;;
  1274                           
  1275                           	psect	text6
  1276  000F50                     __ptext6:
  1277                           	callstack 0
  1278  000F50                     _LCD_Init:
  1279                           	callstack 24
  1280  000F50                     
  1281                           ;Programa_principal.c: 87:     OpenXLCD(0b00101100 & 0b00111000 );
  1282  000F50  0E28               	movlw	40
  1283  000F52  EC5F  F005         	call	_OpenXLCD
  1284  000F56                     l1076:
  1285  000F56  ECF6  F006         	call	_BusyXLCD	;wreg free
  1286  000F5A  0900               	iorlw	0
  1287  000F5C  A4D8               	btfss	status,2,c
  1288  000F5E  EFB3  F007         	goto	u131
  1289  000F62  EFB5  F007         	goto	u130
  1290  000F66                     u131:
  1291  000F66  EFAB  F007         	goto	l1076
  1292  000F6A                     u130:
  1293  000F6A                     
  1294                           ;Programa_principal.c: 89:     WriteCmdXLCD(0x06);
  1295  000F6A  0E06               	movlw	6
  1296  000F6C  EC19  F007         	call	_WriteCmdXLCD
  1297                           
  1298                           ;Programa_principal.c: 90:     WriteCmdXLCD(0x0C);
  1299  000F70  0E0C               	movlw	12
  1300  000F72  EC19  F007         	call	_WriteCmdXLCD
  1301  000F76  0012               	return		;funcret
  1302  000F78                     __end_of_LCD_Init:
  1303                           	callstack 0
  1304                           
  1305 ;; *************** function _OpenXLCD *****************
  1306 ;; Defined at:
  1307 ;;		line 54 in file "LCD_libreria.c"
  1308 ;; Parameters:    Size  Location     Type
  1309 ;;  lcdtype         1    wreg     unsigned char 
  1310 ;; Auto vars:     Size  Location     Type
  1311 ;;  lcdtype         1    6[COMRAM] unsigned char 
  1312 ;; Return value:  Size  Location     Type
  1313 ;;                  1    wreg      void 
  1314 ;; Registers used:
  1315 ;;		wreg, status,2, status,0, cstack
  1316 ;; Tracked objects:
  1317 ;;		On entry : 0/0
  1318 ;;		On exit  : 0/0
  1319 ;;		Unchanged: 0/0
  1320 ;; Data sizes:     COMRAM   BANK0   BANK1   BANK2   BANK3   BANK4   BANK5   BANK6   BANK7
  1321 ;;      Params:         0       0       0       0       0       0       0       0       0
  1322 ;;      Locals:         1       0       0       0       0       0       0       0       0
  1323 ;;      Temps:          0       0       0       0       0       0       0       0       0
  1324 ;;      Totals:         1       0       0       0       0       0       0       0       0
  1325 ;;Total ram usage:        1 bytes
  1326 ;; Hardware stack levels used: 1
  1327 ;; Hardware stack levels required when called: 5
  1328 ;; This function calls:
  1329 ;;		_BusyXLCD
  1330 ;;		_DelayPORXLCD
  1331 ;;		_SetDDRamAddr
  1332 ;;		_WriteCmdXLCD
  1333 ;; This function is called by:
  1334 ;;		_LCD_Init
  1335 ;; This function uses a non-reentrant model
  1336 ;;
  1337                           
  1338                           	psect	text7
  1339  000ABE                     __ptext7:
  1340                           	callstack 0
  1341  000ABE                     _OpenXLCD:
  1342                           	callstack 24
  1343                           
  1344                           ;incstack = 0
  1345                           ;OpenXLCD@lcdtype stored from wreg
  1346  000ABE  6E16               	movwf	OpenXLCD@lcdtype^0,c
  1347  000AC0                     
  1348                           ;LCD_libreria.c: 54: void OpenXLCD(unsigned char lcdtype);LCD_libreria.c: 55: {;LCD_libr
      +                          eria.c: 66:         PORTD &= 0xf0;
  1349  000AC0  0EF0               	movlw	240
  1350  000AC2  1683               	andwf	131,f,c	;volatile
  1351                           
  1352                           ;LCD_libreria.c: 67:         TRISD &= 0xF0;
  1353  000AC4  0EF0               	movlw	240
  1354  000AC6  1695               	andwf	149,f,c	;volatile
  1355  000AC8                     
  1356                           ;LCD_libreria.c: 70:         TRISDbits.TRISD6 = 0;
  1357  000AC8  9C95               	bcf	149,6,c	;volatile
  1358  000ACA                     
  1359                           ;LCD_libreria.c: 71:         TRISDbits.TRISD5 = 0;
  1360  000ACA  9A95               	bcf	149,5,c	;volatile
  1361  000ACC                     
  1362                           ;LCD_libreria.c: 72:         TRISDbits.TRISD4 = 0;
  1363  000ACC  9895               	bcf	149,4,c	;volatile
  1364  000ACE                     
  1365                           ;LCD_libreria.c: 73:         LATDbits.LATD6 = 0;
  1366  000ACE  9C8C               	bcf	140,6,c	;volatile
  1367  000AD0                     
  1368                           ;LCD_libreria.c: 74:         LATDbits.LATD5 = 0;
  1369  000AD0  9A8C               	bcf	140,5,c	;volatile
  1370  000AD2                     
  1371                           ;LCD_libreria.c: 75:         LATDbits.LATD4 = 0;
  1372  000AD2  988C               	bcf	140,4,c	;volatile
  1373  000AD4                     
  1374                           ;LCD_libreria.c: 78:         DelayPORXLCD();
  1375  000AD4  ECD6  F007         	call	_DelayPORXLCD	;wreg free
  1376  000AD8                     
  1377                           ;LCD_libreria.c: 80:    WriteCmdXLCD(0x30);
  1378  000AD8  0E30               	movlw	48
  1379  000ADA  EC19  F007         	call	_WriteCmdXLCD
  1380  000ADE                     
  1381                           ;LCD_libreria.c: 81:          _delay((unsigned long)((1)*(20000000L/4000000.0)));
  1382  000ADE  D000               	nop2		;2 cycle nop
  1383  000AE0  D000               	nop2		;2 cycle nop
  1384  000AE2  F000               	nop	
  1385  000AE4                     
  1386                           ;LCD_libreria.c: 83:    WriteCmdXLCD(0x30);
  1387  000AE4  0E30               	movlw	48
  1388  000AE6  EC19  F007         	call	_WriteCmdXLCD
  1389  000AEA                     
  1390                           ;LCD_libreria.c: 84:    _delay((unsigned long)((1)*(20000000L/4000000.0)));
  1391  000AEA  D000               	nop2		;2 cycle nop
  1392  000AEC  D000               	nop2		;2 cycle nop
  1393  000AEE  F000               	nop	
  1394  000AF0                     
  1395                           ;LCD_libreria.c: 87:    WriteCmdXLCD(0x32);
  1396  000AF0  0E32               	movlw	50
  1397  000AF2  EC19  F007         	call	_WriteCmdXLCD
  1398  000AF6                     l988:
  1399  000AF6  ECF6  F006         	call	_BusyXLCD	;wreg free
  1400  000AFA  0900               	iorlw	0
  1401  000AFC  A4D8               	btfss	status,2,c
  1402  000AFE  EF83  F005         	goto	u31
  1403  000B02  EF85  F005         	goto	u30
  1404  000B06                     u31:
  1405  000B06  EF7B  F005         	goto	l988
  1406  000B0A                     u30:
  1407  000B0A                     l990:
  1408  000B0A  ECF6  F006         	call	_BusyXLCD	;wreg free
  1409  000B0E  0900               	iorlw	0
  1410  000B10  A4D8               	btfss	status,2,c
  1411  000B12  EF8D  F005         	goto	u41
  1412  000B16  EF8F  F005         	goto	u40
  1413  000B1A                     u41:
  1414  000B1A  EF85  F005         	goto	l990
  1415  000B1E                     u40:
  1416  000B1E                     
  1417                           ;LCD_libreria.c: 94:         WriteCmdXLCD(lcdtype);
  1418  000B1E  5016               	movf	OpenXLCD@lcdtype^0,w,c
  1419  000B20  EC19  F007         	call	_WriteCmdXLCD
  1420  000B24                     l994:
  1421  000B24  ECF6  F006         	call	_BusyXLCD	;wreg free
  1422  000B28  0900               	iorlw	0
  1423  000B2A  A4D8               	btfss	status,2,c
  1424  000B2C  EF9A  F005         	goto	u51
  1425  000B30  EF9C  F005         	goto	u50
  1426  000B34                     u51:
  1427  000B34  EF92  F005         	goto	l994
  1428  000B38                     u50:
  1429  000B38                     
  1430                           ;LCD_libreria.c: 98:         WriteCmdXLCD(0b00001011&0b00001101&0b00001110);
  1431  000B38  0E08               	movlw	8
  1432  000B3A  EC19  F007         	call	_WriteCmdXLCD
  1433  000B3E                     l998:
  1434  000B3E  ECF6  F006         	call	_BusyXLCD	;wreg free
  1435  000B42  0900               	iorlw	0
  1436  000B44  A4D8               	btfss	status,2,c
  1437  000B46  EFA7  F005         	goto	u61
  1438  000B4A  EFA9  F005         	goto	u60
  1439  000B4E                     u61:
  1440  000B4E  EF9F  F005         	goto	l998
  1441  000B52                     u60:
  1442  000B52                     
  1443                           ;LCD_libreria.c: 100:         WriteCmdXLCD(0b00001111&0b00001111&0b00001111);
  1444  000B52  0E0F               	movlw	15
  1445  000B54  EC19  F007         	call	_WriteCmdXLCD
  1446  000B58                     l1002:
  1447  000B58  ECF6  F006         	call	_BusyXLCD	;wreg free
  1448  000B5C  0900               	iorlw	0
  1449  000B5E  A4D8               	btfss	status,2,c
  1450  000B60  EFB4  F005         	goto	u71
  1451  000B64  EFB6  F005         	goto	u70
  1452  000B68                     u71:
  1453  000B68  EFAC  F005         	goto	l1002
  1454  000B6C                     u70:
  1455  000B6C                     
  1456                           ;LCD_libreria.c: 104:         WriteCmdXLCD(0x01);
  1457  000B6C  0E01               	movlw	1
  1458  000B6E  EC19  F007         	call	_WriteCmdXLCD
  1459  000B72                     l1006:
  1460  000B72  ECF6  F006         	call	_BusyXLCD	;wreg free
  1461  000B76  0900               	iorlw	0
  1462  000B78  A4D8               	btfss	status,2,c
  1463  000B7A  EFC1  F005         	goto	u81
  1464  000B7E  EFC3  F005         	goto	u80
  1465  000B82                     u81:
  1466  000B82  EFB9  F005         	goto	l1006
  1467  000B86                     u80:
  1468  000B86                     
  1469                           ;LCD_libreria.c: 108:         WriteCmdXLCD(0b00000100);
  1470  000B86  0E04               	movlw	4
  1471  000B88  EC19  F007         	call	_WriteCmdXLCD
  1472  000B8C                     l1010:
  1473  000B8C  ECF6  F006         	call	_BusyXLCD	;wreg free
  1474  000B90  0900               	iorlw	0
  1475  000B92  A4D8               	btfss	status,2,c
  1476  000B94  EFCE  F005         	goto	u91
  1477  000B98  EFD0  F005         	goto	u90
  1478  000B9C                     u91:
  1479  000B9C  EFC6  F005         	goto	l1010
  1480  000BA0                     u90:
  1481  000BA0                     
  1482                           ;LCD_libreria.c: 112:         SetDDRamAddr(0x80);
  1483  000BA0  0E80               	movlw	128
  1484  000BA2  EC7B  F006         	call	_SetDDRamAddr
  1485  000BA6  0012               	return		;funcret
  1486  000BA8                     __end_of_OpenXLCD:
  1487                           	callstack 0
  1488                           
  1489 ;; *************** function _WriteCmdXLCD *****************
  1490 ;; Defined at:
  1491 ;;		line 142 in file "LCD_libreria.c"
  1492 ;; Parameters:    Size  Location     Type
  1493 ;;  cmd             1    wreg     unsigned char 
  1494 ;; Auto vars:     Size  Location     Type
  1495 ;;  cmd             1    2[COMRAM] unsigned char 
  1496 ;; Return value:  Size  Location     Type
  1497 ;;                  1    wreg      void 
  1498 ;; Registers used:
  1499 ;;		wreg, status,2, status,0, cstack
  1500 ;; Tracked objects:
  1501 ;;		On entry : 0/0
  1502 ;;		On exit  : 0/0
  1503 ;;		Unchanged: 0/0
  1504 ;; Data sizes:     COMRAM   BANK0   BANK1   BANK2   BANK3   BANK4   BANK5   BANK6   BANK7
  1505 ;;      Params:         0       0       0       0       0       0       0       0       0
  1506 ;;      Locals:         1       0       0       0       0       0       0       0       0
  1507 ;;      Temps:          0       0       0       0       0       0       0       0       0
  1508 ;;      Totals:         1       0       0       0       0       0       0       0       0
  1509 ;;Total ram usage:        1 bytes
  1510 ;; Hardware stack levels used: 1
  1511 ;; Hardware stack levels required when called: 4
  1512 ;; This function calls:
  1513 ;;		_DelayFor18TCY
  1514 ;; This function is called by:
  1515 ;;		_LCD_Init
  1516 ;;		_main
  1517 ;;		_LCD_gotoXY
  1518 ;;		_OpenXLCD
  1519 ;; This function uses a non-reentrant model
  1520 ;;
  1521                           
  1522                           	psect	text8
  1523  000E32                     __ptext8:
  1524                           	callstack 0
  1525  000E32                     _WriteCmdXLCD:
  1526                           	callstack 26
  1527                           
  1528                           ;incstack = 0
  1529                           ;WriteCmdXLCD@cmd stored from wreg
  1530  000E32  6E12               	movwf	WriteCmdXLCD@cmd^0,c
  1531  000E34                     
  1532                           ;LCD_libreria.c: 142: void WriteCmdXLCD(unsigned char cmd);LCD_libreria.c: 143: {;LCD_li
      +                          breria.c: 161:         TRISD &= 0xf0;
  1533  000E34  0EF0               	movlw	240
  1534  000E36  1695               	andwf	149,f,c	;volatile
  1535                           
  1536                           ;LCD_libreria.c: 162:         PORTD &= 0xf0;
  1537  000E38  0EF0               	movlw	240
  1538  000E3A  1683               	andwf	131,f,c	;volatile
  1539                           
  1540                           ;LCD_libreria.c: 163:         PORTD |= (cmd>>4)&0x0f;
  1541  000E3C  3812               	swapf	WriteCmdXLCD@cmd^0,w,c
  1542  000E3E  0B0F               	andlw	15
  1543  000E40  0B0F               	andlw	15
  1544  000E42  1283               	iorwf	131,f,c	;volatile
  1545  000E44                     
  1546                           ;LCD_libreria.c: 165:         LATDbits.LATD6 = 0;
  1547  000E44  9C8C               	bcf	140,6,c	;volatile
  1548  000E46                     
  1549                           ;LCD_libreria.c: 166:         LATDbits.LATD5 = 0;
  1550  000E46  9A8C               	bcf	140,5,c	;volatile
  1551  000E48                     
  1552                           ;LCD_libreria.c: 167:         DelayFor18TCY();
  1553  000E48  ECBC  F007         	call	_DelayFor18TCY	;wreg free
  1554  000E4C                     
  1555                           ;LCD_libreria.c: 168:         LATDbits.LATD4 = 1;
  1556  000E4C  888C               	bsf	140,4,c	;volatile
  1557  000E4E                     
  1558                           ;LCD_libreria.c: 169:         DelayFor18TCY();
  1559  000E4E  ECBC  F007         	call	_DelayFor18TCY	;wreg free
  1560  000E52                     
  1561                           ;LCD_libreria.c: 170:         LATDbits.LATD4 = 0;
  1562  000E52  988C               	bcf	140,4,c	;volatile
  1563                           
  1564                           ;LCD_libreria.c: 175:         PORTD &= 0xf0;
  1565  000E54  0EF0               	movlw	240
  1566  000E56  1683               	andwf	131,f,c	;volatile
  1567                           
  1568                           ;LCD_libreria.c: 176:         PORTD |= cmd&0x0f;
  1569  000E58  5012               	movf	WriteCmdXLCD@cmd^0,w,c
  1570  000E5A  0B0F               	andlw	15
  1571  000E5C  1283               	iorwf	131,f,c	;volatile
  1572  000E5E                     
  1573                           ;LCD_libreria.c: 178:         DelayFor18TCY();
  1574  000E5E  ECBC  F007         	call	_DelayFor18TCY	;wreg free
  1575  000E62                     
  1576                           ;LCD_libreria.c: 179:         LATDbits.LATD4 = 1;
  1577  000E62  888C               	bsf	140,4,c	;volatile
  1578  000E64                     
  1579                           ;LCD_libreria.c: 180:         DelayFor18TCY();
  1580  000E64  ECBC  F007         	call	_DelayFor18TCY	;wreg free
  1581  000E68                     
  1582                           ;LCD_libreria.c: 181:         LATDbits.LATD4 = 0;
  1583  000E68  988C               	bcf	140,4,c	;volatile
  1584                           
  1585                           ;LCD_libreria.c: 185:         TRISD |= 0x0f;
  1586  000E6A  0E0F               	movlw	15
  1587  000E6C  1295               	iorwf	149,f,c	;volatile
  1588  000E6E  0012               	return		;funcret
  1589  000E70                     __end_of_WriteCmdXLCD:
  1590                           	callstack 0
  1591                           
  1592 ;; *************** function _SetDDRamAddr *****************
  1593 ;; Defined at:
  1594 ;;		line 283 in file "LCD_libreria.c"
  1595 ;; Parameters:    Size  Location     Type
  1596 ;;  DDaddr          1    wreg     unsigned char 
  1597 ;; Auto vars:     Size  Location     Type
  1598 ;;  DDaddr          1    5[COMRAM] unsigned char 
  1599 ;; Return value:  Size  Location     Type
  1600 ;;                  1    wreg      void 
  1601 ;; Registers used:
  1602 ;;		wreg, status,2, status,0, cstack
  1603 ;; Tracked objects:
  1604 ;;		On entry : 0/0
  1605 ;;		On exit  : 0/0
  1606 ;;		Unchanged: 0/0
  1607 ;; Data sizes:     COMRAM   BANK0   BANK1   BANK2   BANK3   BANK4   BANK5   BANK6   BANK7
  1608 ;;      Params:         0       0       0       0       0       0       0       0       0
  1609 ;;      Locals:         1       0       0       0       0       0       0       0       0
  1610 ;;      Temps:          3       0       0       0       0       0       0       0       0
  1611 ;;      Totals:         4       0       0       0       0       0       0       0       0
  1612 ;;Total ram usage:        4 bytes
  1613 ;; Hardware stack levels used: 1
  1614 ;; Hardware stack levels required when called: 4
  1615 ;; This function calls:
  1616 ;;		_DelayFor18TCY
  1617 ;; This function is called by:
  1618 ;;		_OpenXLCD
  1619 ;; This function uses a non-reentrant model
  1620 ;;
  1621                           
  1622                           	psect	text9
  1623  000CF6                     __ptext9:
  1624                           	callstack 0
  1625  000CF6                     _SetDDRamAddr:
  1626                           	callstack 24
  1627                           
  1628                           ;incstack = 0
  1629                           ;SetDDRamAddr@DDaddr stored from wreg
  1630  000CF6  6E15               	movwf	SetDDRamAddr@DDaddr^0,c
  1631  000CF8                     
  1632                           ;LCD_libreria.c: 283: void SetDDRamAddr(unsigned char DDaddr);LCD_libreria.c: 284: {;LCD
      +                          _libreria.c: 302:         TRISD &= 0xf0;
  1633  000CF8  0EF0               	movlw	240
  1634  000CFA  1695               	andwf	149,f,c	;volatile
  1635                           
  1636                           ;LCD_libreria.c: 303:         PORTD &= 0xf0;
  1637  000CFC  0EF0               	movlw	240
  1638  000CFE  1683               	andwf	131,f,c	;volatile
  1639                           
  1640                           ;LCD_libreria.c: 304:         PORTD |= (((DDaddr | 0b10000000)>>4) & 0x0f);
  1641  000D00  5015               	movf	SetDDRamAddr@DDaddr^0,w,c
  1642  000D02  6E12               	movwf	??_SetDDRamAddr^0,c
  1643  000D04  6A13               	clrf	(??_SetDDRamAddr+1)^0,c
  1644  000D06  0E80               	movlw	128
  1645  000D08  1212               	iorwf	??_SetDDRamAddr^0,f,c
  1646  000D0A  0E00               	movlw	0
  1647  000D0C  1213               	iorwf	(??_SetDDRamAddr+1)^0,f,c
  1648  000D0E  0E04               	movlw	4
  1649  000D10  6E14               	movwf	(??_SetDDRamAddr+2)^0,c
  1650  000D12                     u25:
  1651  000D12  3413               	rlcf	(??_SetDDRamAddr+1)^0,w,c
  1652  000D14  3213               	rrcf	(??_SetDDRamAddr+1)^0,f,c
  1653  000D16  3212               	rrcf	??_SetDDRamAddr^0,f,c
  1654  000D18  2E14               	decfsz	(??_SetDDRamAddr+2)^0,f,c
  1655  000D1A  EF89  F006         	goto	u25
  1656  000D1E  5012               	movf	??_SetDDRamAddr^0,w,c
  1657  000D20  0B0F               	andlw	15
  1658  000D22  1283               	iorwf	131,f,c	;volatile
  1659  000D24                     
  1660                           ;LCD_libreria.c: 306:         LATDbits.LATD6 = 0;
  1661  000D24  9C8C               	bcf	140,6,c	;volatile
  1662  000D26                     
  1663                           ;LCD_libreria.c: 307:         LATDbits.LATD5 = 0;
  1664  000D26  9A8C               	bcf	140,5,c	;volatile
  1665  000D28                     
  1666                           ;LCD_libreria.c: 308:         DelayFor18TCY();
  1667  000D28  ECBC  F007         	call	_DelayFor18TCY	;wreg free
  1668  000D2C                     
  1669                           ;LCD_libreria.c: 309:         LATDbits.LATD4 = 1;
  1670  000D2C  888C               	bsf	140,4,c	;volatile
  1671  000D2E                     
  1672                           ;LCD_libreria.c: 310:         DelayFor18TCY();
  1673  000D2E  ECBC  F007         	call	_DelayFor18TCY	;wreg free
  1674  000D32                     
  1675                           ;LCD_libreria.c: 311:         LATDbits.LATD4 = 0;
  1676  000D32  988C               	bcf	140,4,c	;volatile
  1677                           
  1678                           ;LCD_libreria.c: 316:         PORTD &= 0xf0;
  1679  000D34  0EF0               	movlw	240
  1680  000D36  1683               	andwf	131,f,c	;volatile
  1681                           
  1682                           ;LCD_libreria.c: 317:         PORTD |= (DDaddr&0x0f);
  1683  000D38  5015               	movf	SetDDRamAddr@DDaddr^0,w,c
  1684  000D3A  0B0F               	andlw	15
  1685  000D3C  1283               	iorwf	131,f,c	;volatile
  1686  000D3E                     
  1687                           ;LCD_libreria.c: 319:         DelayFor18TCY();
  1688  000D3E  ECBC  F007         	call	_DelayFor18TCY	;wreg free
  1689  000D42                     
  1690                           ;LCD_libreria.c: 320:         LATDbits.LATD4 = 1;
  1691  000D42  888C               	bsf	140,4,c	;volatile
  1692  000D44                     
  1693                           ;LCD_libreria.c: 321:         DelayFor18TCY();
  1694  000D44  ECBC  F007         	call	_DelayFor18TCY	;wreg free
  1695  000D48                     
  1696                           ;LCD_libreria.c: 322:         LATDbits.LATD4 = 0;
  1697  000D48  988C               	bcf	140,4,c	;volatile
  1698                           
  1699                           ;LCD_libreria.c: 326:         TRISD |= 0x0f;
  1700  000D4A  0E0F               	movlw	15
  1701  000D4C  1295               	iorwf	149,f,c	;volatile
  1702  000D4E  0012               	return		;funcret
  1703  000D50                     __end_of_SetDDRamAddr:
  1704                           	callstack 0
  1705                           
  1706 ;; *************** function _DelayPORXLCD *****************
  1707 ;; Defined at:
  1708 ;;		line 24 in file "LCD_libreria.c"
  1709 ;; Parameters:    Size  Location     Type
  1710 ;;		None
  1711 ;; Auto vars:     Size  Location     Type
  1712 ;;		None
  1713 ;; Return value:  Size  Location     Type
  1714 ;;                  1    wreg      void 
  1715 ;; Registers used:
  1716 ;;		wreg
  1717 ;; Tracked objects:
  1718 ;;		On entry : 0/0
  1719 ;;		On exit  : 0/0
  1720 ;;		Unchanged: 0/0
  1721 ;; Data sizes:     COMRAM   BANK0   BANK1   BANK2   BANK3   BANK4   BANK5   BANK6   BANK7
  1722 ;;      Params:         0       0       0       0       0       0       0       0       0
  1723 ;;      Locals:         0       0       0       0       0       0       0       0       0
  1724 ;;      Temps:          1       0       0       0       0       0       0       0       0
  1725 ;;      Totals:         1       0       0       0       0       0       0       0       0
  1726 ;;Total ram usage:        1 bytes
  1727 ;; Hardware stack levels used: 1
  1728 ;; Hardware stack levels required when called: 3
  1729 ;; This function calls:
  1730 ;;		Nothing
  1731 ;; This function is called by:
  1732 ;;		_OpenXLCD
  1733 ;; This function uses a non-reentrant model
  1734 ;;
  1735                           
  1736                           	psect	text10
  1737  000FAC                     __ptext10:
  1738                           	callstack 0
  1739  000FAC                     _DelayPORXLCD:
  1740                           	callstack 25
  1741  000FAC                     
  1742                           ;LCD_libreria.c: 25:     _delay((unsigned long)((15)*(20000000L/4000.0)));
  1743  000FAC  0E62               	movlw	98
  1744  000FAE  6E12               	movwf	??_DelayPORXLCD^0,c
  1745  000FB0  0E66               	movlw	102
  1746  000FB2                     u547:
  1747  000FB2  2EE8               	decfsz	wreg,f,c
  1748  000FB4  D7FE               	bra	u547
  1749  000FB6  2E12               	decfsz	??_DelayPORXLCD^0,f,c
  1750  000FB8  D7FC               	bra	u547
  1751  000FBA  0012               	return		;funcret
  1752  000FBC                     __end_of_DelayPORXLCD:
  1753                           	callstack 0
  1754                           
  1755 ;; *************** function _BusyXLCD *****************
  1756 ;; Defined at:
  1757 ;;		line 426 in file "LCD_libreria.c"
  1758 ;; Parameters:    Size  Location     Type
  1759 ;;		None
  1760 ;; Auto vars:     Size  Location     Type
  1761 ;;		None
  1762 ;; Return value:  Size  Location     Type
  1763 ;;                  1    wreg      unsigned char 
  1764 ;; Registers used:
  1765 ;;		wreg, cstack
  1766 ;; Tracked objects:
  1767 ;;		On entry : 0/0
  1768 ;;		On exit  : 0/0
  1769 ;;		Unchanged: 0/0
  1770 ;; Data sizes:     COMRAM   BANK0   BANK1   BANK2   BANK3   BANK4   BANK5   BANK6   BANK7
  1771 ;;      Params:         0       0       0       0       0       0       0       0       0
  1772 ;;      Locals:         0       0       0       0       0       0       0       0       0
  1773 ;;      Temps:          0       0       0       0       0       0       0       0       0
  1774 ;;      Totals:         0       0       0       0       0       0       0       0       0
  1775 ;;Total ram usage:        0 bytes
  1776 ;; Hardware stack levels used: 1
  1777 ;; Hardware stack levels required when called: 4
  1778 ;; This function calls:
  1779 ;;		_DelayFor18TCY
  1780 ;; This function is called by:
  1781 ;;		_LCD_Init
  1782 ;;		_OpenXLCD
  1783 ;;		_putrsXLCD
  1784 ;;		_SetCGRamAddr
  1785 ;;		_WriteDataXLCD
  1786 ;;		_putsXLCD
  1787 ;; This function uses a non-reentrant model
  1788 ;;
  1789                           
  1790                           	psect	text11
  1791  000DEC                     __ptext11:
  1792                           	callstack 0
  1793  000DEC                     _BusyXLCD:
  1794                           	callstack 24
  1795  000DEC                     
  1796                           ;LCD_libreria.c: 428:         LATDbits.LATD6 = 1;
  1797  000DEC  8C8C               	bsf	140,6,c	;volatile
  1798                           
  1799                           ;LCD_libreria.c: 429:         LATDbits.LATD5 = 0;
  1800  000DEE  9A8C               	bcf	140,5,c	;volatile
  1801  000DF0                     
  1802                           ;LCD_libreria.c: 430:         DelayFor18TCY();
  1803  000DF0  ECBC  F007         	call	_DelayFor18TCY	;wreg free
  1804  000DF4                     
  1805                           ;LCD_libreria.c: 431:         LATDbits.LATD4 = 1;
  1806  000DF4  888C               	bsf	140,4,c	;volatile
  1807                           
  1808                           ;LCD_libreria.c: 432:         DelayFor18TCY();
  1809  000DF6  ECBC  F007         	call	_DelayFor18TCY	;wreg free
  1810  000DFA                     
  1811                           ;LCD_libreria.c: 450:         if(PORTD&0x08)
  1812  000DFA  A683               	btfss	131,3,c	;volatile
  1813  000DFC  EF02  F007         	goto	u11
  1814  000E00  EF04  F007         	goto	u10
  1815  000E04                     u11:
  1816  000E04  EF0F  F007         	goto	l194
  1817  000E08                     u10:
  1818  000E08                     
  1819                           ;LCD_libreria.c: 452:         {;LCD_libreria.c: 453:                 LATDbits.LATD4 = 0;
  1820  000E08  988C               	bcf	140,4,c	;volatile
  1821  000E0A                     
  1822                           ;LCD_libreria.c: 454:                 DelayFor18TCY();
  1823  000E0A  ECBC  F007         	call	_DelayFor18TCY	;wreg free
  1824  000E0E                     
  1825                           ;LCD_libreria.c: 455:                 LATDbits.LATD4 = 1;
  1826  000E0E  888C               	bsf	140,4,c	;volatile
  1827                           
  1828                           ;LCD_libreria.c: 456:                 DelayFor18TCY();
  1829  000E10  ECBC  F007         	call	_DelayFor18TCY	;wreg free
  1830  000E14                     
  1831                           ;LCD_libreria.c: 457:                 LATDbits.LATD4 = 0;
  1832  000E14  988C               	bcf	140,4,c	;volatile
  1833  000E16                     
  1834                           ;LCD_libreria.c: 458:                 LATDbits.LATD6 = 0;
  1835  000E16  9C8C               	bcf	140,6,c	;volatile
  1836  000E18                     
  1837                           ;LCD_libreria.c: 459:                 return 1;
  1838  000E18  0E01               	movlw	1
  1839  000E1A  EF18  F007         	goto	l195
  1840  000E1E                     l194:
  1841                           
  1842                           ;LCD_libreria.c: 462:         {;LCD_libreria.c: 463:                 LATDbits.LATD4 = 0;
  1843  000E1E  988C               	bcf	140,4,c	;volatile
  1844  000E20                     
  1845                           ;LCD_libreria.c: 464:                 DelayFor18TCY();
  1846  000E20  ECBC  F007         	call	_DelayFor18TCY	;wreg free
  1847  000E24                     
  1848                           ;LCD_libreria.c: 465:                 LATDbits.LATD4 = 1;
  1849  000E24  888C               	bsf	140,4,c	;volatile
  1850                           
  1851                           ;LCD_libreria.c: 466:                 DelayFor18TCY();
  1852  000E26  ECBC  F007         	call	_DelayFor18TCY	;wreg free
  1853  000E2A                     
  1854                           ;LCD_libreria.c: 467:                 LATDbits.LATD4 = 0;
  1855  000E2A  988C               	bcf	140,4,c	;volatile
  1856  000E2C                     
  1857                           ;LCD_libreria.c: 468:                 LATDbits.LATD6 = 0;
  1858  000E2C  9C8C               	bcf	140,6,c	;volatile
  1859  000E2E                     
  1860                           ;LCD_libreria.c: 469:                 return 0;
  1861  000E2E  0E00               	movlw	0
  1862  000E30                     l195:
  1863  000E30  0012               	return		;funcret
  1864  000E32                     __end_of_BusyXLCD:
  1865                           	callstack 0
  1866                           
  1867 ;; *************** function _DelayFor18TCY *****************
  1868 ;; Defined at:
  1869 ;;		line 7 in file "LCD_libreria.c"
  1870 ;; Parameters:    Size  Location     Type
  1871 ;;		None
  1872 ;; Auto vars:     Size  Location     Type
  1873 ;;		None
  1874 ;; Return value:  Size  Location     Type
  1875 ;;                  1    wreg      void 
  1876 ;; Registers used:
  1877 ;;		None
  1878 ;; Tracked objects:
  1879 ;;		On entry : 0/0
  1880 ;;		On exit  : 0/0
  1881 ;;		Unchanged: 0/0
  1882 ;; Data sizes:     COMRAM   BANK0   BANK1   BANK2   BANK3   BANK4   BANK5   BANK6   BANK7
  1883 ;;      Params:         0       0       0       0       0       0       0       0       0
  1884 ;;      Locals:         0       0       0       0       0       0       0       0       0
  1885 ;;      Temps:          0       0       0       0       0       0       0       0       0
  1886 ;;      Totals:         0       0       0       0       0       0       0       0       0
  1887 ;;Total ram usage:        0 bytes
  1888 ;; Hardware stack levels used: 1
  1889 ;; Hardware stack levels required when called: 3
  1890 ;; This function calls:
  1891 ;;		Nothing
  1892 ;; This function is called by:
  1893 ;;		_WriteCmdXLCD
  1894 ;;		_SetDDRamAddr
  1895 ;;		_WriteDataXLCD
  1896 ;;		_BusyXLCD
  1897 ;;		_ReadAddrXLCD
  1898 ;;		_ReadDataXLCD
  1899 ;; This function uses a non-reentrant model
  1900 ;;
  1901                           
  1902                           	psect	text12
  1903  000F78                     __ptext12:
  1904                           	callstack 0
  1905  000F78                     _DelayFor18TCY:
  1906                           	callstack 25
  1907  000F78                     
  1908                           ;LCD_libreria.c: 8:     __nop();
  1909  000F78  F000               	nop	
  1910                           
  1911                           ;LCD_libreria.c: 9:     __nop();
  1912  000F7A  F000               	nop	
  1913                           
  1914                           ;LCD_libreria.c: 10:     __nop();
  1915  000F7C  F000               	nop	
  1916                           
  1917                           ;LCD_libreria.c: 11:     __nop();
  1918  000F7E  F000               	nop	
  1919                           
  1920                           ;LCD_libreria.c: 12:     __nop();
  1921  000F80  F000               	nop	
  1922                           
  1923                           ;LCD_libreria.c: 13:     __nop();
  1924  000F82  F000               	nop	
  1925                           
  1926                           ;LCD_libreria.c: 14:     __nop();
  1927  000F84  F000               	nop	
  1928                           
  1929                           ;LCD_libreria.c: 15:     __nop();
  1930  000F86  F000               	nop	
  1931                           
  1932                           ;LCD_libreria.c: 16:     __nop();
  1933  000F88  F000               	nop	
  1934                           
  1935                           ;LCD_libreria.c: 17:     __nop();
  1936  000F8A  F000               	nop	
  1937                           
  1938                           ;LCD_libreria.c: 18:     __nop();
  1939  000F8C  F000               	nop	
  1940                           
  1941                           ;LCD_libreria.c: 19:     __nop();
  1942  000F8E  F000               	nop	
  1943  000F90  0012               	return		;funcret
  1944  000F92                     __end_of_DelayFor18TCY:
  1945                           	callstack 0
  1946                           
  1947 ;; *************** function _JOSHUAint0 *****************
  1948 ;; Defined at:
  1949 ;;		line 160 in file "Programa_principal.c"
  1950 ;; Parameters:    Size  Location     Type
  1951 ;;		None
  1952 ;; Auto vars:     Size  Location     Type
  1953 ;;		None
  1954 ;; Return value:  Size  Location     Type
  1955 ;;                  1    wreg      void 
  1956 ;; Registers used:
  1957 ;;		wreg, status,2, status,0, cstack
  1958 ;; Tracked objects:
  1959 ;;		On entry : 0/0
  1960 ;;		On exit  : 0/0
  1961 ;;		Unchanged: 0/0
  1962 ;; Data sizes:     COMRAM   BANK0   BANK1   BANK2   BANK3   BANK4   BANK5   BANK6   BANK7
  1963 ;;      Params:         0       0       0       0       0       0       0       0       0
  1964 ;;      Locals:         0       0       0       0       0       0       0       0       0
  1965 ;;      Temps:          1       0       0       0       0       0       0       0       0
  1966 ;;      Totals:         1       0       0       0       0       0       0       0       0
  1967 ;;Total ram usage:        1 bytes
  1968 ;; Hardware stack levels used: 1
  1969 ;; Hardware stack levels required when called: 2
  1970 ;; This function calls:
  1971 ;;		i2_WriteCmdXLCD
  1972 ;; This function is called by:
  1973 ;;		Interrupt level 2
  1974 ;; This function uses a non-reentrant model
  1975 ;;
  1976                           
  1977                           	psect	intcode
  1978  000008                     __pintcode:
  1979                           	callstack 0
  1980  000008                     _JOSHUAint0:
  1981                           	callstack 24
  1982                           
  1983                           ;incstack = 0
  1984  000008  8221               	bsf	int$flags,1,c	;set compiler interrupt flag (level 2)
  1985  00000A  EDD4  F005         	call	int_func,f	;refresh shadow registers
  1986                           
  1987                           	psect	intcode_body
  1988  000BA8                     __pintcode_body:
  1989                           	callstack 24
  1990  000BA8                     int_func:
  1991                           	callstack 24
  1992  000BA8  0006               	pop		; remove dummy address from shadow register refresh
  1993  000BAA                     
  1994                           ;Programa_principal.c: 161:     if(INTCONbits.INT0IF){
  1995  000BAA  A2F2               	btfss	242,1,c	;volatile
  1996  000BAC  EFDA  F005         	goto	i2u39_41
  1997  000BB0  EFDC  F005         	goto	i2u39_40
  1998  000BB4                     i2u39_41:
  1999  000BB4  EF3A  F006         	goto	i2l1442
  2000  000BB8                     i2u39_40:
  2001  000BB8                     
  2002                           ;Programa_principal.c: 162:         _delay((unsigned long)((100)*(20000000L/4000000.0)))
      +                          ;
  2003  000BB8  0EA6               	movlw	166
  2004  000BBA                     i2u55_47:
  2005  000BBA  2EE8               	decfsz	wreg,f,c
  2006  000BBC  D7FE               	bra	i2u55_47
  2007  000BBE  D000               	nop2	
  2008  000BC0                     
  2009                           ;Programa_principal.c: 163:         if(PORTBbits.RB1 != PORTBbits.RB0){
  2010  000BC0  B081               	btfsc	129,0,c	;volatile
  2011  000BC2  EFE5  F005         	goto	i2u40_41
  2012  000BC6  EFE8  F005         	goto	i2u40_40
  2013  000BCA                     i2u40_41:
  2014  000BCA  0E01               	movlw	1
  2015  000BCC  EFE9  F005         	goto	i2u40_42
  2016  000BD0                     i2u40_40:
  2017  000BD0  0E00               	movlw	0
  2018  000BD2                     i2u40_42:
  2019  000BD2  6E11               	movwf	??_JOSHUAint0^0,c
  2020  000BD4  B281               	btfsc	129,1,c	;volatile
  2021  000BD6  EFEF  F005         	goto	i2u41_41
  2022  000BDA  EFF2  F005         	goto	i2u41_40
  2023  000BDE                     i2u41_41:
  2024  000BDE  0E01               	movlw	1
  2025  000BE0  EFF3  F005         	goto	i2u41_42
  2026  000BE4                     i2u41_40:
  2027  000BE4  0E00               	movlw	0
  2028  000BE6                     i2u41_42:
  2029  000BE6  1A11               	xorwf	??_JOSHUAint0^0,f,c
  2030  000BE8  B4D8               	btfsc	status,2,c
  2031  000BEA  EFF9  F005         	goto	i2u42_41
  2032  000BEE  EFFB  F005         	goto	i2u42_40
  2033  000BF2                     i2u42_41:
  2034  000BF2  EF0D  F006         	goto	i2l1436
  2035  000BF6                     i2u42_40:
  2036  000BF6                     
  2037                           ;Programa_principal.c: 164:             if(p<16){
  2038  000BF6  BE1F               	btfsc	(_p+1)^0,7,c
  2039  000BF8  EF09  F006         	goto	i2u43_40
  2040  000BFC  501F               	movf	(_p+1)^0,w,c
  2041  000BFE  E107               	bnz	i2u43_41
  2042  000C00  0E10               	movlw	16
  2043  000C02  5C1E               	subwf	_p^0,w,c
  2044  000C04  B0D8               	btfsc	status,0,c
  2045  000C06  EF07  F006         	goto	i2u43_41
  2046  000C0A  EF09  F006         	goto	i2u43_40
  2047  000C0E                     i2u43_41:
  2048  000C0E  EF3A  F006         	goto	i2l1442
  2049  000C12                     i2u43_40:
  2050  000C12                     
  2051                           ;Programa_principal.c: 165:                 p++;
  2052  000C12  4A1E               	infsnz	_p^0,f,c
  2053  000C14  2A1F               	incf	(_p+1)^0,f,c
  2054  000C16  EF3A  F006         	goto	i2l1442
  2055  000C1A                     i2l1436:
  2056  000C1A  B081               	btfsc	129,0,c	;volatile
  2057  000C1C  EF12  F006         	goto	i2u44_41
  2058  000C20  EF15  F006         	goto	i2u44_40
  2059  000C24                     i2u44_41:
  2060  000C24  0E01               	movlw	1
  2061  000C26  EF16  F006         	goto	i2u44_42
  2062  000C2A                     i2u44_40:
  2063  000C2A  0E00               	movlw	0
  2064  000C2C                     i2u44_42:
  2065  000C2C  6E11               	movwf	??_JOSHUAint0^0,c
  2066  000C2E  B281               	btfsc	129,1,c	;volatile
  2067  000C30  EF1C  F006         	goto	i2u45_41
  2068  000C34  EF1F  F006         	goto	i2u45_40
  2069  000C38                     i2u45_41:
  2070  000C38  0E01               	movlw	1
  2071  000C3A  EF20  F006         	goto	i2u45_42
  2072  000C3E                     i2u45_40:
  2073  000C3E  0E00               	movlw	0
  2074  000C40                     i2u45_42:
  2075  000C40  1A11               	xorwf	??_JOSHUAint0^0,f,c
  2076  000C42  A4D8               	btfss	status,2,c
  2077  000C44  EF26  F006         	goto	i2u46_41
  2078  000C48  EF28  F006         	goto	i2u46_40
  2079  000C4C                     i2u46_41:
  2080  000C4C  EF3A  F006         	goto	i2l1442
  2081  000C50                     i2u46_40:
  2082  000C50                     
  2083                           ;Programa_principal.c: 168:             if(p>0){
  2084  000C50  BE1F               	btfsc	(_p+1)^0,7,c
  2085  000C52  EF33  F006         	goto	i2u47_41
  2086  000C56  501F               	movf	(_p+1)^0,w,c
  2087  000C58  E108               	bnz	i2u47_40
  2088  000C5A  041E               	decf	_p^0,w,c
  2089  000C5C  A0D8               	btfss	status,0,c
  2090  000C5E  EF33  F006         	goto	i2u47_41
  2091  000C62  EF35  F006         	goto	i2u47_40
  2092  000C66                     i2u47_41:
  2093  000C66  EF3A  F006         	goto	i2l81
  2094  000C6A                     i2u47_40:
  2095  000C6A                     
  2096                           ;Programa_principal.c: 169:                 p--;
  2097  000C6A  061E               	decf	_p^0,f,c
  2098  000C6C  A0D8               	btfss	status,0,c
  2099  000C6E  061F               	decf	(_p+1)^0,f,c
  2100  000C70  EF3A  F006         	goto	i2l1442
  2101  000C74                     i2l81:
  2102  000C74                     i2l1442:
  2103                           
  2104                           ;Programa_principal.c: 173:     WriteCmdXLCD(0x01);
  2105  000C74  0E01               	movlw	1
  2106  000C76  EC38  F007         	call	i2_WriteCmdXLCD
  2107  000C7A                     
  2108                           ;Programa_principal.c: 174:     INTCONbits.INT0IF=0;
  2109  000C7A  92F2               	bcf	242,1,c	;volatile
  2110  000C7C  9221               	bcf	int$flags,1,c	;clear compiler interrupt flag (level 2)
  2111  000C7E  0011               	retfie		f
  2112  000C80                     __end_of_JOSHUAint0:
  2113                           	callstack 0
  2114                           
  2115 ;; *************** function i2_WriteCmdXLCD *****************
  2116 ;; Defined at:
  2117 ;;		line 142 in file "LCD_libreria.c"
  2118 ;; Parameters:    Size  Location     Type
  2119 ;;  cmd             1    wreg     unsigned char 
  2120 ;; Auto vars:     Size  Location     Type
  2121 ;;  cmd             1    0[COMRAM] unsigned char 
  2122 ;; Return value:  Size  Location     Type
  2123 ;;                  1    wreg      void 
  2124 ;; Registers used:
  2125 ;;		wreg, status,2, status,0, cstack
  2126 ;; Tracked objects:
  2127 ;;		On entry : 0/0
  2128 ;;		On exit  : 0/0
  2129 ;;		Unchanged: 0/0
  2130 ;; Data sizes:     COMRAM   BANK0   BANK1   BANK2   BANK3   BANK4   BANK5   BANK6   BANK7
  2131 ;;      Params:         0       0       0       0       0       0       0       0       0
  2132 ;;      Locals:         1       0       0       0       0       0       0       0       0
  2133 ;;      Temps:          0       0       0       0       0       0       0       0       0
  2134 ;;      Totals:         1       0       0       0       0       0       0       0       0
  2135 ;;Total ram usage:        1 bytes
  2136 ;; Hardware stack levels used: 1
  2137 ;; Hardware stack levels required when called: 1
  2138 ;; This function calls:
  2139 ;;		i2_DelayFor18TCY
  2140 ;; This function is called by:
  2141 ;;		_JOSHUAint0
  2142 ;; This function uses a non-reentrant model
  2143 ;;
  2144                           
  2145                           	psect	text14
  2146  000E70                     __ptext14:
  2147                           	callstack 0
  2148  000E70                     i2_WriteCmdXLCD:
  2149                           	callstack 24
  2150                           
  2151                           ;incstack = 0
  2152                           ;i2WriteCmdXLCD@cmd stored from wreg
  2153  000E70  6E10               	movwf	i2WriteCmdXLCD@cmd^0,c
  2154  000E72                     
  2155                           ;LCD_libreria.c: 142: void WriteCmdXLCD(unsigned char cmd);LCD_libreria.c: 143: {;LCD_li
      +                          breria.c: 161:         TRISD &= 0xf0;
  2156  000E72  0EF0               	movlw	240
  2157  000E74  1695               	andwf	149,f,c	;volatile
  2158                           
  2159                           ;LCD_libreria.c: 162:         PORTD &= 0xf0;
  2160  000E76  0EF0               	movlw	240
  2161  000E78  1683               	andwf	131,f,c	;volatile
  2162                           
  2163                           ;LCD_libreria.c: 163:         PORTD |= (cmd>>4)&0x0f;
  2164  000E7A  3810               	swapf	i2WriteCmdXLCD@cmd^0,w,c
  2165  000E7C  0B0F               	andlw	15
  2166  000E7E  0B0F               	andlw	15
  2167  000E80  1283               	iorwf	131,f,c	;volatile
  2168  000E82                     
  2169                           ;LCD_libreria.c: 165:         LATDbits.LATD6 = 0;
  2170  000E82  9C8C               	bcf	140,6,c	;volatile
  2171  000E84                     
  2172                           ;LCD_libreria.c: 166:         LATDbits.LATD5 = 0;
  2173  000E84  9A8C               	bcf	140,5,c	;volatile
  2174  000E86                     
  2175                           ;LCD_libreria.c: 167:         DelayFor18TCY();
  2176  000E86  ECC9  F007         	call	i2_DelayFor18TCY	;wreg free
  2177  000E8A                     
  2178                           ;LCD_libreria.c: 168:         LATDbits.LATD4 = 1;
  2179  000E8A  888C               	bsf	140,4,c	;volatile
  2180  000E8C                     
  2181                           ;LCD_libreria.c: 169:         DelayFor18TCY();
  2182  000E8C  ECC9  F007         	call	i2_DelayFor18TCY	;wreg free
  2183  000E90                     
  2184                           ;LCD_libreria.c: 170:         LATDbits.LATD4 = 0;
  2185  000E90  988C               	bcf	140,4,c	;volatile
  2186                           
  2187                           ;LCD_libreria.c: 175:         PORTD &= 0xf0;
  2188  000E92  0EF0               	movlw	240
  2189  000E94  1683               	andwf	131,f,c	;volatile
  2190                           
  2191                           ;LCD_libreria.c: 176:         PORTD |= cmd&0x0f;
  2192  000E96  5010               	movf	i2WriteCmdXLCD@cmd^0,w,c
  2193  000E98  0B0F               	andlw	15
  2194  000E9A  1283               	iorwf	131,f,c	;volatile
  2195  000E9C                     
  2196                           ;LCD_libreria.c: 178:         DelayFor18TCY();
  2197  000E9C  ECC9  F007         	call	i2_DelayFor18TCY	;wreg free
  2198  000EA0                     
  2199                           ;LCD_libreria.c: 179:         LATDbits.LATD4 = 1;
  2200  000EA0  888C               	bsf	140,4,c	;volatile
  2201  000EA2                     
  2202                           ;LCD_libreria.c: 180:         DelayFor18TCY();
  2203  000EA2  ECC9  F007         	call	i2_DelayFor18TCY	;wreg free
  2204  000EA6                     
  2205                           ;LCD_libreria.c: 181:         LATDbits.LATD4 = 0;
  2206  000EA6  988C               	bcf	140,4,c	;volatile
  2207                           
  2208                           ;LCD_libreria.c: 185:         TRISD |= 0x0f;
  2209  000EA8  0E0F               	movlw	15
  2210  000EAA  1295               	iorwf	149,f,c	;volatile
  2211  000EAC  0012               	return		;funcret
  2212  000EAE                     __end_ofi2_WriteCmdXLCD:
  2213                           	callstack 0
  2214                           
  2215 ;; *************** function i2_DelayFor18TCY *****************
  2216 ;; Defined at:
  2217 ;;		line 7 in file "LCD_libreria.c"
  2218 ;; Parameters:    Size  Location     Type
  2219 ;;		None
  2220 ;; Auto vars:     Size  Location     Type
  2221 ;;		None
  2222 ;; Return value:  Size  Location     Type
  2223 ;;                  1    wreg      void 
  2224 ;; Registers used:
  2225 ;;		None
  2226 ;; Tracked objects:
  2227 ;;		On entry : 0/0
  2228 ;;		On exit  : 0/0
  2229 ;;		Unchanged: 0/0
  2230 ;; Data sizes:     COMRAM   BANK0   BANK1   BANK2   BANK3   BANK4   BANK5   BANK6   BANK7
  2231 ;;      Params:         0       0       0       0       0       0       0       0       0
  2232 ;;      Locals:         0       0       0       0       0       0       0       0       0
  2233 ;;      Temps:          0       0       0       0       0       0       0       0       0
  2234 ;;      Totals:         0       0       0       0       0       0       0       0       0
  2235 ;;Total ram usage:        0 bytes
  2236 ;; Hardware stack levels used: 1
  2237 ;; This function calls:
  2238 ;;		Nothing
  2239 ;; This function is called by:
  2240 ;;		i2_WriteCmdXLCD
  2241 ;; This function uses a non-reentrant model
  2242 ;;
  2243                           
  2244                           	psect	text15
  2245  000F92                     __ptext15:
  2246                           	callstack 0
  2247  000F92                     i2_DelayFor18TCY:
  2248                           	callstack 24
  2249  000F92                     
  2250                           ;LCD_libreria.c: 8:     __nop();
  2251  000F92  F000               	nop	
  2252                           
  2253                           ;LCD_libreria.c: 9:     __nop();
  2254  000F94  F000               	nop	
  2255                           
  2256                           ;LCD_libreria.c: 10:     __nop();
  2257  000F96  F000               	nop	
  2258                           
  2259                           ;LCD_libreria.c: 11:     __nop();
  2260  000F98  F000               	nop	
  2261                           
  2262                           ;LCD_libreria.c: 12:     __nop();
  2263  000F9A  F000               	nop	
  2264                           
  2265                           ;LCD_libreria.c: 13:     __nop();
  2266  000F9C  F000               	nop	
  2267                           
  2268                           ;LCD_libreria.c: 14:     __nop();
  2269  000F9E  F000               	nop	
  2270                           
  2271                           ;LCD_libreria.c: 15:     __nop();
  2272  000FA0  F000               	nop	
  2273                           
  2274                           ;LCD_libreria.c: 16:     __nop();
  2275  000FA2  F000               	nop	
  2276                           
  2277                           ;LCD_libreria.c: 17:     __nop();
  2278  000FA4  F000               	nop	
  2279                           
  2280                           ;LCD_libreria.c: 18:     __nop();
  2281  000FA6  F000               	nop	
  2282                           
  2283                           ;LCD_libreria.c: 19:     __nop();
  2284  000FA8  F000               	nop	
  2285  000FAA  0012               	return		;funcret
  2286  000FAC                     __end_ofi2_DelayFor18TCY:
  2287                           	callstack 0
  2288                           
  2289                           	psect	rparam
  2290  0000                     
  2291                           	psect	temp
  2292  000021                     btemp:
  2293                           	callstack 0
  2294  000021                     	ds	1
  2295  0000                     int$flags	set	btemp
  2296  0000                     wtemp8	set	btemp+1
  2297  0000                     ttemp5	set	btemp+1
  2298  0000                     ttemp6	set	btemp+4
  2299  0000                     ttemp7	set	btemp+8
  2300                           
  2301                           	psect	idloc
  2302                           
  2303                           ;Config register IDLOC0 @ 0x200000
  2304                           ;	unspecified, using default values
  2305  200000                     	org	2097152
  2306  200000  FF                 	db	255
  2307                           
  2308                           ;Config register IDLOC1 @ 0x200001
  2309                           ;	unspecified, using default values
  2310  200001                     	org	2097153
  2311  200001  FF                 	db	255
  2312                           
  2313                           ;Config register IDLOC2 @ 0x200002
  2314                           ;	unspecified, using default values
  2315  200002                     	org	2097154
  2316  200002  FF                 	db	255
  2317                           
  2318                           ;Config register IDLOC3 @ 0x200003
  2319                           ;	unspecified, using default values
  2320  200003                     	org	2097155
  2321  200003  FF                 	db	255
  2322                           
  2323                           ;Config register IDLOC4 @ 0x200004
  2324                           ;	unspecified, using default values
  2325  200004                     	org	2097156
  2326  200004  FF                 	db	255
  2327                           
  2328                           ;Config register IDLOC5 @ 0x200005
  2329                           ;	unspecified, using default values
  2330  200005                     	org	2097157
  2331  200005  FF                 	db	255
  2332                           
  2333                           ;Config register IDLOC6 @ 0x200006
  2334                           ;	unspecified, using default values
  2335  200006                     	org	2097158
  2336  200006  FF                 	db	255
  2337                           
  2338                           ;Config register IDLOC7 @ 0x200007
  2339                           ;	unspecified, using default values
  2340  200007                     	org	2097159
  2341  200007  FF                 	db	255
  2342                           
  2343                           	psect	config
  2344                           
  2345                           ;Config register CONFIG1L @ 0x300000
  2346                           ;	PLL Prescaler Selection bits
  2347                           ;	PLLDIV = 1, No prescale (4 MHz oscillator input drives PLL directly)
  2348                           ;	System Clock Postscaler Selection bits
  2349                           ;	CPUDIV = OSC1_PLL2, [Primary Oscillator Src: /1][96 MHz PLL Src: /2]
  2350                           ;	USB Clock Selection bit (used in Full-Speed USB mode only; UCFG:FSEN = 1)
  2351                           ;	USBDIV = 1, USB clock source comes directly from the primary oscillator block with no 
      +                          postscale
  2352  300000                     	org	3145728
  2353  300000  00                 	db	0
  2354                           
  2355                           ;Config register CONFIG1H @ 0x300001
  2356                           ;	Oscillator Selection bits
  2357                           ;	FOSC = HS, HS oscillator (HS)
  2358                           ;	Fail-Safe Clock Monitor Enable bit
  2359                           ;	FCMEN = OFF, Fail-Safe Clock Monitor disabled
  2360                           ;	Internal/External Oscillator Switchover bit
  2361                           ;	IESO = OFF, Oscillator Switchover mode disabled
  2362  300001                     	org	3145729
  2363  300001  0C                 	db	12
  2364                           
  2365                           ;Config register CONFIG2L @ 0x300002
  2366                           ;	Power-up Timer Enable bit
  2367                           ;	PWRT = OFF, PWRT disabled
  2368                           ;	Brown-out Reset Enable bits
  2369                           ;	BOR = OFF, Brown-out Reset disabled in hardware and software
  2370                           ;	Brown-out Reset Voltage bits
  2371                           ;	BORV = 3, Minimum setting 2.05V
  2372                           ;	USB Voltage Regulator Enable bit
  2373                           ;	VREGEN = OFF, USB voltage regulator disabled
  2374  300002                     	org	3145730
  2375  300002  19                 	db	25
  2376                           
  2377                           ;Config register CONFIG2H @ 0x300003
  2378                           ;	Watchdog Timer Enable bit
  2379                           ;	WDT = OFF, WDT disabled (control is placed on the SWDTEN bit)
  2380                           ;	Watchdog Timer Postscale Select bits
  2381                           ;	WDTPS = 32768, 1:32768
  2382  300003                     	org	3145731
  2383  300003  1E                 	db	30
  2384                           
  2385                           ; Padding undefined space
  2386  300004                     	org	3145732
  2387  300004  FF                 	db	255
  2388                           
  2389                           ;Config register CONFIG3H @ 0x300005
  2390                           ;	CCP2 MUX bit
  2391                           ;	CCP2MX = ON, CCP2 input/output is multiplexed with RC1
  2392                           ;	PORTB A/D Enable bit
  2393                           ;	PBADEN = OFF, PORTB<4:0> pins are configured as digital I/O on Reset
  2394                           ;	Low-Power Timer 1 Oscillator Enable bit
  2395                           ;	LPT1OSC = OFF, Timer1 configured for higher power operation
  2396                           ;	MCLR Pin Enable bit
  2397                           ;	MCLRE = ON, MCLR pin enabled; RE3 input pin disabled
  2398  300005                     	org	3145733
  2399  300005  81                 	db	129
  2400                           
  2401                           ;Config register CONFIG4L @ 0x300006
  2402                           ;	Stack Full/Underflow Reset Enable bit
  2403                           ;	STVREN = ON, Stack full/underflow will cause Reset
  2404                           ;	Single-Supply ICSP Enable bit
  2405                           ;	LVP = OFF, Single-Supply ICSP disabled
  2406                           ;	Dedicated In-Circuit Debug/Programming Port (ICPORT) Enable bit
  2407                           ;	ICPRT = OFF, ICPORT disabled
  2408                           ;	Extended Instruction Set Enable bit
  2409                           ;	XINST = OFF, Instruction set extension and Indexed Addressing mode disabled (Legacy mo
      +                          de)
  2410                           ;	Background Debugger Enable bit
  2411                           ;	DEBUG = 0x1, unprogrammed default
  2412  300006                     	org	3145734
  2413  300006  81                 	db	129
  2414                           
  2415                           ; Padding undefined space
  2416  300007                     	org	3145735
  2417  300007  FF                 	db	255
  2418                           
  2419                           ;Config register CONFIG5L @ 0x300008
  2420                           ;	Code Protection bit
  2421                           ;	CP0 = OFF, Block 0 (000800-001FFFh) is not code-protected
  2422                           ;	Code Protection bit
  2423                           ;	CP1 = OFF, Block 1 (002000-003FFFh) is not code-protected
  2424                           ;	Code Protection bit
  2425                           ;	CP2 = OFF, Block 2 (004000-005FFFh) is not code-protected
  2426                           ;	Code Protection bit
  2427                           ;	CP3 = OFF, Block 3 (006000-007FFFh) is not code-protected
  2428  300008                     	org	3145736
  2429  300008  0F                 	db	15
  2430                           
  2431                           ;Config register CONFIG5H @ 0x300009
  2432                           ;	Boot Block Code Protection bit
  2433                           ;	CPB = OFF, Boot block (000000-0007FFh) is not code-protected
  2434                           ;	Data EEPROM Code Protection bit
  2435                           ;	CPD = OFF, Data EEPROM is not code-protected
  2436  300009                     	org	3145737
  2437  300009  C0                 	db	192
  2438                           
  2439                           ;Config register CONFIG6L @ 0x30000A
  2440                           ;	Write Protection bit
  2441                           ;	WRT0 = OFF, Block 0 (000800-001FFFh) is not write-protected
  2442                           ;	Write Protection bit
  2443                           ;	WRT1 = OFF, Block 1 (002000-003FFFh) is not write-protected
  2444                           ;	Write Protection bit
  2445                           ;	WRT2 = OFF, Block 2 (004000-005FFFh) is not write-protected
  2446                           ;	Write Protection bit
  2447                           ;	WRT3 = OFF, Block 3 (006000-007FFFh) is not write-protected
  2448  30000A                     	org	3145738
  2449  30000A  0F                 	db	15
  2450                           
  2451                           ;Config register CONFIG6H @ 0x30000B
  2452                           ;	Configuration Register Write Protection bit
  2453                           ;	WRTC = OFF, Configuration registers (300000-3000FFh) are not write-protected
  2454                           ;	Boot Block Write Protection bit
  2455                           ;	WRTB = OFF, Boot block (000000-0007FFh) is not write-protected
  2456                           ;	Data EEPROM Write Protection bit
  2457                           ;	WRTD = OFF, Data EEPROM is not write-protected
  2458  30000B                     	org	3145739
  2459  30000B  E0                 	db	224
  2460                           
  2461                           ;Config register CONFIG7L @ 0x30000C
  2462                           ;	Table Read Protection bit
  2463                           ;	EBTR0 = OFF, Block 0 (000800-001FFFh) is not protected from table reads executed in ot
      +                          her blocks
  2464                           ;	Table Read Protection bit
  2465                           ;	EBTR1 = OFF, Block 1 (002000-003FFFh) is not protected from table reads executed in ot
      +                          her blocks
  2466                           ;	Table Read Protection bit
  2467                           ;	EBTR2 = OFF, Block 2 (004000-005FFFh) is not protected from table reads executed in ot
      +                          her blocks
  2468                           ;	Table Read Protection bit
  2469                           ;	EBTR3 = OFF, Block 3 (006000-007FFFh) is not protected from table reads executed in ot
      +                          her blocks
  2470  30000C                     	org	3145740
  2471  30000C  0F                 	db	15
  2472                           
  2473                           ;Config register CONFIG7H @ 0x30000D
  2474                           ;	Boot Block Table Read Protection bit
  2475                           ;	EBTRB = OFF, Boot block (000000-0007FFh) is not protected from table reads executed in
      +                           other blocks
  2476  30000D                     	org	3145741
  2477  30000D  40                 	db	64
  2478                           tosu	equ	0xFFF
  2479                           tosh	equ	0xFFE
  2480                           tosl	equ	0xFFD
  2481                           stkptr	equ	0xFFC
  2482                           pclatu	equ	0xFFB
  2483                           pclath	equ	0xFFA
  2484                           pcl	equ	0xFF9
  2485                           tblptru	equ	0xFF8
  2486                           tblptrh	equ	0xFF7
  2487                           tblptrl	equ	0xFF6
  2488                           tablat	equ	0xFF5
  2489                           prodh	equ	0xFF4
  2490                           prodl	equ	0xFF3
  2491                           indf0	equ	0xFEF
  2492                           postinc0	equ	0xFEE
  2493                           postdec0	equ	0xFED
  2494                           preinc0	equ	0xFEC
  2495                           plusw0	equ	0xFEB
  2496                           fsr0h	equ	0xFEA
  2497                           fsr0l	equ	0xFE9
  2498                           wreg	equ	0xFE8
  2499                           indf1	equ	0xFE7
  2500                           postinc1	equ	0xFE6
  2501                           postdec1	equ	0xFE5
  2502                           preinc1	equ	0xFE4
  2503                           plusw1	equ	0xFE3
  2504                           fsr1h	equ	0xFE2
  2505                           fsr1l	equ	0xFE1
  2506                           bsr	equ	0xFE0
  2507                           indf2	equ	0xFDF
  2508                           postinc2	equ	0xFDE
  2509                           postdec2	equ	0xFDD
  2510                           preinc2	equ	0xFDC
  2511                           plusw2	equ	0xFDB
  2512                           fsr2h	equ	0xFDA
  2513                           fsr2l	equ	0xFD9
  2514                           status	equ	0xFD8

Data Sizes:
    Strings     17
    Constant    72
    Data        15
    BSS         5
    Persistent  0
    Stack       0

Auto Spaces:
    Space          Size  Autos    Used
    COMRAM           94     12      32
    BANK0           160      0       0
    BANK1           256      0       0
    BANK2           256      0       0
    BANK3           256      0       0
    BANK4           256      0       0
    BANK5           256      0       0
    BANK6           256      0       0
    BANK7           256      0       0

Pointer List with Targets:

    putrsXLCD@buffer	PTR const unsigned char  size(2) Largest target is 9
		 -> STR_5(CODE[4]), STR_4(CODE[9]), STR_3(CODE[4]), STR_2(CODE[9]), 
		 -> STR_1(CODE[9]), 

    LCD_WriteChr_CGRAM@buffer	PTR const unsigned char  size(2) Largest target is 9
		 -> max(CODE[9]), b6(CODE[9]), b5(CODE[9]), b4(CODE[9]), 
		 -> b3(CODE[9]), b2(CODE[9]), b1(CODE[9]), min(CODE[9]), 


Critical Paths under _main in COMRAM

    _main->_LCD_WriteChr_CGRAM
    _putrsXLCD->_WriteDataXLCD
    _LCD_gotoXY->_WriteCmdXLCD
    _LCD_WriteChr_CGRAM->_SetCGRamAddr
    _LCD_Init->_OpenXLCD
    _OpenXLCD->_SetDDRamAddr

Critical Paths under _JOSHUAint0 in COMRAM

    _JOSHUAint0->i2_WriteCmdXLCD

Critical Paths under _main in BANK0

    None.

Critical Paths under _JOSHUAint0 in BANK0

    None.

Critical Paths under _main in BANK1

    None.

Critical Paths under _JOSHUAint0 in BANK1

    None.

Critical Paths under _main in BANK2

    None.

Critical Paths under _JOSHUAint0 in BANK2

    None.

Critical Paths under _main in BANK3

    None.

Critical Paths under _JOSHUAint0 in BANK3

    None.

Critical Paths under _main in BANK4

    None.

Critical Paths under _JOSHUAint0 in BANK4

    None.

Critical Paths under _main in BANK5

    None.

Critical Paths under _JOSHUAint0 in BANK5

    None.

Critical Paths under _main in BANK6

    None.

Critical Paths under _JOSHUAint0 in BANK6

    None.

Critical Paths under _main in BANK7

    None.

Critical Paths under _JOSHUAint0 in BANK7

    None.

Call Graph Tables:

 ---------------------------------------------------------------------------------
 (Depth) Function   	        Calls       Base Space   Used Autos Params    Refs
 ---------------------------------------------------------------------------------
 (0) _main                                                 2     2      0    2996
                                             10 COMRAM     2     2      0
                           _LCD_Init
                 _LCD_WriteChr_CGRAM
                         _LCD_gotoXY
                       _WriteCmdXLCD
                      _WriteDataXLCD
                          _putrsXLCD
 ---------------------------------------------------------------------------------
 (1) _putrsXLCD                                            2     0      2     455
                                              3 COMRAM     2     0      2
                           _BusyXLCD
                      _WriteDataXLCD
 ---------------------------------------------------------------------------------
 (1) _LCD_gotoXY                                           4     0      4    1008
                                              3 COMRAM     4     0      4
                       _WriteCmdXLCD
 ---------------------------------------------------------------------------------
 (1) _LCD_WriteChr_CGRAM                                   4     1      3    1368
                                              6 COMRAM     4     1      3
                       _SetCGRamAddr
                      _WriteDataXLCD
 ---------------------------------------------------------------------------------
 (2) _WriteDataXLCD                                        1     1      0      30
                                              2 COMRAM     1     1      0
                           _BusyXLCD
                      _DelayFor18TCY
 ---------------------------------------------------------------------------------
 (2) _SetCGRamAddr                                         4     4      0      30
                                              2 COMRAM     4     4      0
                           _BusyXLCD
 ---------------------------------------------------------------------------------
 (1) _LCD_Init                                             0     0      0     105
                           _BusyXLCD
                           _OpenXLCD
                       _WriteCmdXLCD
 ---------------------------------------------------------------------------------
 (2) _OpenXLCD                                             1     1      0      75
                                              6 COMRAM     1     1      0
                           _BusyXLCD
                       _DelayPORXLCD
                       _SetDDRamAddr
                       _WriteCmdXLCD
 ---------------------------------------------------------------------------------
 (1) _WriteCmdXLCD                                         1     1      0      30
                                              2 COMRAM     1     1      0
                      _DelayFor18TCY
 ---------------------------------------------------------------------------------
 (3) _SetDDRamAddr                                         4     4      0      30
                                              2 COMRAM     4     4      0
                      _DelayFor18TCY
 ---------------------------------------------------------------------------------
 (3) _DelayPORXLCD                                         1     1      0       0
                                              2 COMRAM     1     1      0
 ---------------------------------------------------------------------------------
 (3) _BusyXLCD                                             0     0      0       0
                      _DelayFor18TCY
 ---------------------------------------------------------------------------------
 (3) _DelayFor18TCY                                        0     0      0       0
 ---------------------------------------------------------------------------------
 Estimated maximum stack depth 3
 ---------------------------------------------------------------------------------
 (Depth) Function   	        Calls       Base Space   Used Autos Params    Refs
 ---------------------------------------------------------------------------------
 (5) _JOSHUAint0                                           1     1      0      44
                                              1 COMRAM     1     1      0
                     i2_WriteCmdXLCD
 ---------------------------------------------------------------------------------
 (6) i2_WriteCmdXLCD                                       1     1      0      44
                                              0 COMRAM     1     1      0
                    i2_DelayFor18TCY
 ---------------------------------------------------------------------------------
 (7) i2_DelayFor18TCY                                      0     0      0       0
 ---------------------------------------------------------------------------------
 Estimated maximum stack depth 7
 ---------------------------------------------------------------------------------

 Call Graph Graphs:

 _main (ROOT)
   _LCD_Init
     _BusyXLCD
       _DelayFor18TCY
     _OpenXLCD
       _BusyXLCD
       _DelayPORXLCD
       _SetDDRamAddr
         _DelayFor18TCY
       _WriteCmdXLCD
         _DelayFor18TCY
     _WriteCmdXLCD
   _LCD_WriteChr_CGRAM
     _SetCGRamAddr
       _BusyXLCD
     _WriteDataXLCD
       _BusyXLCD
       _DelayFor18TCY
   _LCD_gotoXY
     _WriteCmdXLCD
   _WriteCmdXLCD
   _WriteDataXLCD
   _putrsXLCD
     _BusyXLCD
     _WriteDataXLCD

 _JOSHUAint0 (ROOT)
   i2_WriteCmdXLCD
     i2_DelayFor18TCY

 Address spaces:
Name               Size   Autos  Total    Cost      Usage
BIGRAM             7FF      0       0      21        0.0%
EEDATA             100      0       0       0        0.0%
BITBANK7           100      0       0      18        0.0%
BANK7              100      0       0      19        0.0%
BITBANK6           100      0       0      16        0.0%
BANK6              100      0       0      17        0.0%
BITBANK5           100      0       0      14        0.0%
BANK5              100      0       0      15        0.0%
BITBANK4           100      0       0      12        0.0%
BANK4              100      0       0      13        0.0%
BITBANK3           100      0       0      10        0.0%
BANK3              100      0       0      11        0.0%
BITBANK2           100      0       0       8        0.0%
BANK2              100      0       0       9        0.0%
BITBANK1           100      0       0       6        0.0%
BANK1              100      0       0       7        0.0%
BITBANK0            A0      0       0       4        0.0%
BANK0               A0      0       0       5        0.0%
BITCOMRAM           5E      0       0       0        0.0%
COMRAM              5E      C      20       1       34.0%
BITSFR               0      0       0     200        0.0%
SFR                  0      0       0     200        0.0%
STACK                0      0       0       2        0.0%
NULL                 0      0       0       0        0.0%
ABS                  0      0      20      20        0.0%
DATA                 0      0      20       3        0.0%
CODE                 0      0       0       0        0.0%


Microchip Technology PIC18 Macro Assembler V2.32 build 20210201212658 
Symbol Table                                                                                   Tue May 11 15:02:23 2021

                          _i 001C                            _p 001E                           l50 0F76  
                         u10 0E08                           u11 0E04                           u30 0B0A  
                         u31 0B06                           u40 0B1E                           u25 0D12  
                         u41 0B1A                           u50 0B38                           u51 0B34  
                         u60 0B52                           u61 0B4E                           _b1 082E  
                         u70 0B6C                           _b2 0825                           u71 0B68  
                         _b3 081C                           u80 0B86                           _b4 0813  
                         u81 0B82                           _b5 080A                           u90 0BA0  
                         _b6 0801                           u91 0B9C                          l112 0FBA  
                        l120 0F4E                          l109 0F90                          l125 0F1E  
                        l170 0E6E                          l149 0BA6                          l182 0D4E  
                        l158 0DEA                          l191 0DA0                          l194 0E1E  
                        l195 0E30                          l179 0CF4                          l900 0E24  
                        l902 0E2A                          l910 0E34                          l904 0E2C  
                        l920 0E4E                          l912 0E44                          l906 0E2E  
                        l930 0E68                          l922 0E52                          l914 0E46  
                        l940 0D24                          l924 0E5E                          l916 0E48  
                        l934 0FAC                          l950 0D32                          l942 0D26  
                        l926 0E62                          l918 0E4C                          l872 0F78  
                        l880 0DFA                          l952 0D3E                          l944 0D28  
                        l928 0E64                          l890 0E16                          l882 0E08  
                        l874 0DEC                          l954 0D42                          l946 0D2C  
                        l938 0CF8                          l970 0ACE                          l962 0AC0  
                        l892 0E18                          l884 0E0A                          l876 0DF0  
                        l956 0D44                          l948 0D2E                          l980 0ADE  
                        l972 0AD0                          l964 0AC8                          l886 0E0E  
                        l878 0DF4                          l958 0D48                          l990 0B0A  
                        l982 0AE4                          l974 0AD2                          l966 0ACA  
                        l888 0E14                          l992 0B1E                          l984 0AEA  
                        l976 0AD4                          l968 0ACC                          l898 0E20  
                        l994 0B24                          l986 0AF0                          l978 0AD8  
                        l996 0B38                          l988 0AF6                          l998 0B3E  
                        u100 0D66                          u101 0D62                          u110 0C96  
                        u111 0C92                          u130 0F6A                          u131 0F66  
                        u125 0CB0                          u320 0F3A                          u321 0F36  
                        u330 0DBA                          u331 0DB6                          u340 0DEA  
                        u341 0DE6                          u350 0F1E                          u351 0F1A  
                        u360 0962                          u361 095E                          u370 09C0  
                        u371 09BC                          u507 098C                          u380 0A46  
                        u381 0A42                          u517 09F0                          u527 0A74  
                        u537 0AAA                          u547 0FB2                          u487 08A4  
                        u497 093A                  ?_LCD_gotoXY 0013                          _cgr 0001  
                        _max 0840                          _min 0837        __size_of_WriteCmdXLCD 003E  
                        wreg 000FE8                         l1000 0B52                         l1010 0B8C  
                       l1002 0B58                         l1012 0BA0                         l1004 0B6C  
                       l1020 0D66                         l1006 0B72                         l1030 0D80  
                       l1022 0D76                         l1008 0B86                         l1040 0D9A  
                       l1032 0D84                         l1024 0D78                         l1016 0D52  
                       l1050 0CC2                         l1034 0D90                         l1026 0D7A  
                       l1018 0D52                         l1060 0CD4                         l1052 0CC4  
                       l1044 0C82                         l1036 0D94                         l1028 0D7E  
                       l1300 0F46                         l1062 0CE0                         l1054 0CC6  
                       l1046 0C82                         l1038 0D96                         l1310 0DCA  
                       l1064 0CE6                         l1056 0CCC                         l1048 0C96  
                       l1312 0DCE                         l1304 0DA2                         l1400 09C0  
                       l1074 0F50                         l1066 0CE8                         l1058 0CCE  
                       l1330 0F0E                         l1314 0EEA                         l1306 0DA6  
                       l1402 09D4                         l1076 0F56                         l1068 0CEE  
                       l1324 0EF8                         l1316 0EEA                         l1308 0DBA  
                       l1420 0A6A                         l1412 0A24                         l1404 09E6  
                       l1078 0F6A                         l1326 0F08                         l1318 0EF4  
                       l1422 0A80                         l1406 0A00                         l1414 0A28  
                       l1328 0F0C                         l1424 0A94                         l1408 0A14  
                       l1416 0A4A                         l1360 0870                         l1418 0A5E  
                       l1370 08B0                         l1362 0874                         l1380 0900  
                       l1372 08C0                         l1364 087A                         l1356 085C  
                       l1390 0962                         l1382 0910                         l1374 08D0  
                       l1366 088E                         l1358 086C                         l1296 0F20  
                       l1392 0976                         l1384 0920                         l1376 08E0  
                       l1368 089A                         l1298 0F3A                         l1394 0982  
                       l1386 0930                         l1378 08F0                         l1396 0998  
                       l1388 0948                         l1398 09A4                  ?_JOSHUAint0 0010  
                       STR_1 0849                         STR_2 0849                         STR_3 0856  
                       STR_4 0849                         STR_5 0852                         _LATB 000F8A  
                       i2l81 0C74                         i2l84 0C7C                         _main 085C  
                       indf2 000FDF                         fsr1l 000FE1                         fsr2l 000FD9  
                       btemp 0021     LCD_WriteChr_CGRAM@Addres 0018       __size_of_WriteDataXLCD 0052  
                       prodl 000FF3                         start 000E                 ___param_bank 000000  
               _WriteCmdXLCD 0E32             ?i2_DelayFor18TCY 0010             __end_of_LCD_Init 0F78  
   LCD_WriteChr_CGRAM@buffer 0016           _LCD_WriteChr_CGRAM 0EEA                ?_SetDDRamAddr 0010  
                      ?_main 0010                ?_SetCGRamAddr 0010      __size_ofi2_WriteCmdXLCD 003E  
                      i2l109 0FAA                        i2l170 0EAC                        _PORTD 000F83  
                      _TRISD 000F95          ?_LCD_WriteChr_CGRAM 0016                        tablat 000FF5  
                      ttemp5 0022                        ttemp6 0025                        ttemp7 0029  
                      status 000FD8                        wtemp8 0022          __size_of_LCD_gotoXY 0030  
       ??_LCD_WriteChr_CGRAM 0019              __initialization 0EAE                  LCD_gotoXY@x 0013  
                LCD_gotoXY@y 0015                 __end_of_main 0ABE             __end_of_BusyXLCD 0E32  
      __size_of_DelayPORXLCD 0010          __size_of_JOSHUAint0 0C78               ??_SetDDRamAddr 0012  
             ??_SetCGRamAddr 0012             __end_of_OpenXLCD 0BA8                       ??_main 001A  
              __activetblptr 000001                _WriteDataXLCD 0D50                       i2l1340 0E8A  
                     i2l1332 0E72                       i2l1350 0EA2                       i2l1342 0E8C  
                     i2l1334 0E82                       i2l1430 0BC0                       i2l1352 0EA6  
                     i2l1344 0E90                       i2l1336 0E84                       i2l1440 0C6A  
                     i2l1432 0BF6                       i2l1346 0E9C                       i2l1338 0E86  
                     i2l1434 0C12                       i2l1442 0C74                       i2l1426 0BAA  
                     i2l1348 0EA0                       i2l1444 0C7A                       i2l1436 0C1A  
                     i2l1428 0BB8                       i2l1294 0F92                       i2l1438 0C50  
               _DelayPORXLCD 0FAC                       _cuenta 0020                       isa$std 000001  
             ?_WriteDataXLCD 0010                 __pdataCOMRAM 0001                 __mediumconst 0000  
                     tblptrh 000FF7                       tblptrl 000FF6                       tblptru 000FF8  
                 __accesstop 0060      __end_of__initialization 0ED8                    ?_LCD_Init 0010  
              ___rparam_used 000001               __pcstackCOMRAM 0010                   __end_of_b1 0837  
                 __end_of_b2 082E                   __end_of_b3 0825                   __end_of_b4 081C  
                 __end_of_b5 0813                   __end_of_b6 080A               i2_WriteCmdXLCD 0E70  
               ??_LCD_gotoXY 0017       __size_of_DelayFor18TCY 001A                 ??_JOSHUAint0 0011  
                  ?_BusyXLCD 0010              WriteCmdXLCD@cmd 0012                   ??_LCD_Init 0017  
       __end_of_SetDDRamAddr 0D50         __end_of_SetCGRamAddr 0CF6                    ?_OpenXLCD 0010  
         __end_of_LCD_gotoXY 0F50            WriteDataXLCD@data 0012       __end_ofi2_WriteCmdXLCD 0EAE  
            ??_WriteDataXLCD 0012           __end_of_JOSHUAint0 0C80                      i2u40_40 0BD0  
                    i2u40_41 0BCA                      i2u40_42 0BD2                      i2u41_40 0BE4  
                    i2u41_41 0BDE                      i2u41_42 0BE6                      i2u42_40 0BF6  
                    i2u42_41 0BF2                      i2u43_40 0C12                      i2u43_41 0C0E  
                    i2u44_40 0C2A                      i2u44_41 0C24                      i2u44_42 0C2C  
                    i2u45_40 0C3E                      i2u45_41 0C38                      i2u45_42 0C40  
                    i2u46_40 0C50                      i2u46_41 0C4C                      i2u47_40 0C6A  
                    i2u39_40 0BB8                      i2u47_41 0C66                      i2u39_41 0BB4  
                    i2u55_47 0BBA           __size_of_putrsXLCD 004A                   ??_BusyXLCD 0012  
                 ??_OpenXLCD 0016                      __Hparam 0000                      __Lparam 0000  
              _DelayFor18TCY 0F78                 __psmallconst 0800              ?i2_WriteCmdXLCD 0010  
                    __pcinit 0EAE              putrsXLCD@buffer 0013                      __ramtop 0800  
                    __ptext0 085C                      __ptext1 0DA2                      __ptext2 0F20  
                    __ptext3 0EEA                      __ptext4 0D50                      __ptext5 0C80  
                    __ptext6 0F50                      __ptext7 0ABE                      __ptext8 0E32  
                    __ptext9 0CF6     __size_ofi2_DelayFor18TCY 001A               __pintcode_body 0BA8  
       end_of_initialization 0ED8                      int_func 0BA8  __size_of_LCD_WriteChr_CGRAM 0036  
             ?_DelayFor18TCY 0010                      postdec1 000FE5                      postinc0 000FEE  
          __end_of_putrsXLCD 0DEC                    _PORTBbits 000F81                    _TRISBbits 000F93  
                  _TRISDbits 000F95        __size_of_SetDDRamAddr 005A        __size_of_SetCGRamAddr 0076  
          __size_of_LCD_Init 0028                __pidataCOMRAM 0FBC                 _SetDDRamAddr 0CF6  
               _SetCGRamAddr 0C80           SetDDRamAddr@DDaddr 0015          start_initialization 0EAE  
                __end_of_max 0849                  __end_of_min 0840            ??i2_DelayFor18TCY 0010  
          __size_of_BusyXLCD 0046              ??_DelayFor18TCY 0012            __size_of_OpenXLCD 00EA  
              ?_WriteCmdXLCD 0010          LCD_WriteChr_CGRAM@i 0019                  __pbssCOMRAM 001C  
           ??i2_WriteCmdXLCD 0010                    __pintcode 0008               ??_WriteCmdXLCD 0012  
      __end_of_WriteDataXLCD 0DA2                  __smallconst 0800                     _LCD_Init 0F50  
                   _LATDbits 000F8C                ?_DelayPORXLCD 0010              OpenXLCD@lcdtype 0016  
                   _RCONbits 000FD0                    _putrsXLCD 0DA2                  _INTCON2bits 000FF1  
                  copy_data0 0EC2                     _BusyXLCD 0DEC               ??_DelayPORXLCD 0012  
                   _OpenXLCD 0ABE   __end_of_LCD_WriteChr_CGRAM 0F20                     __Hrparam 0000  
                   __Lrparam 0000                 __Lsmallconst 0800              i2_DelayFor18TCY 0F92  
                 ?_putrsXLCD 0013           SetCGRamAddr@CGaddr 0015                     __ptext10 0FAC  
                   __ptext11 0DEC                     __ptext12 0F78                     __ptext14 0E70  
                   __ptext15 0F92         __end_of_WriteCmdXLCD 0E70                __size_of_main 0262  
                   isa$xinst 000000                     int$flags 0021                   _LCD_gotoXY 0F20  
                 _INTCONbits 000FF2                   _JOSHUAint0 0008                     intlevel2 0000  
      __end_of_DelayFor18TCY 0F92      __end_ofi2_DelayFor18TCY 0FAC         __end_of_DelayPORXLCD 0FBC  
                ??_putrsXLCD 0015            i2WriteCmdXLCD@cmd 0010  
